# SymbolsHelper-Confirmed: 5.9.1 amd64 arm64 i386
libQt5QuickTemplates2.so.5 libqt5quicktemplates2-5 #MINVER#
 Qt_5_PRIVATE_API@Qt_5_PRIVATE_API 5.6.0~beta
 _ZN10QQuickDial10setPressedEb@Qt_5_PRIVATE_API 5.6.0~beta
 _ZN10QQuickDial10touchEventEP11QTouchEvent@Qt_5_PRIVATE_API 5.9.0~rc
 _ZN10QQuickDial10wheelEventEP11QWheelEvent@Qt_5_PRIVATE_API 5.9.0~rc
 _ZN10QQuickDial11fromChangedEv@Qt_5_PRIVATE_API 5.6.0~beta
 _ZN10QQuickDial11liveChangedEv@Qt_5_PRIVATE_API 5.9.0~rc
 _ZN10QQuickDial11qt_metacallEN11QMetaObject4CallEiPPv@Qt_5_PRIVATE_API 5.6.0~beta
 _ZN10QQuickDial11qt_metacastEPKc@Qt_5_PRIVATE_API 5.6.0~beta
 _ZN10QQuickDial11setSnapModeENS_8SnapModeE@Qt_5_PRIVATE_API 5.6.0~beta
 _ZN10QQuickDial11setStepSizeEd@Qt_5_PRIVATE_API 5.6.0~beta
 _ZN10QQuickDial11wrapChangedEv@Qt_5_PRIVATE_API 5.7.1
 _ZN10QQuickDial12angleChangedEv@Qt_5_PRIVATE_API 5.6.0~beta
 _ZN10QQuickDial12mirrorChangeEv@Qt_5_PRIVATE_API 5.6.0~beta
 _ZN10QQuickDial12valueChangedEv@Qt_5_PRIVATE_API 5.6.0~beta
 _ZN10QQuickDial13handleChangedEv@Qt_5_PRIVATE_API 5.6.0~beta
 _ZN10QQuickDial13keyPressEventEP9QKeyEvent@Qt_5_PRIVATE_API 5.6.0~beta
 _ZN10QQuickDial14mouseMoveEventEP11QMouseEvent@Qt_5_PRIVATE_API 5.6.0~beta
 _ZN10QQuickDial14pressedChangedEv@Qt_5_PRIVATE_API 5.6.0~beta
 _ZN10QQuickDial15keyReleaseEventEP9QKeyEvent@Qt_5_PRIVATE_API 5.6.0~beta
 _ZN10QQuickDial15mousePressEventEP11QMouseEvent@Qt_5_PRIVATE_API 5.6.0~beta
 _ZN10QQuickDial15positionChangedEv@Qt_5_PRIVATE_API 5.6.0~beta
 _ZN10QQuickDial15snapModeChangedEv@Qt_5_PRIVATE_API 5.6.0~beta
 _ZN10QQuickDial15stepSizeChangedEv@Qt_5_PRIVATE_API 5.6.0~beta
 _ZN10QQuickDial16staticMetaObjectE@Qt_5_PRIVATE_API 5.6.0~beta
 _ZN10QQuickDial17componentCompleteEv@Qt_5_PRIVATE_API 5.6.0~beta
 _ZN10QQuickDial26accessibilityActiveChangedEb@Qt_5_PRIVATE_API 5.6.0~beta
 _ZN10QQuickDial5movedEv@Qt_5_PRIVATE_API 5.9.0~rc
 _ZN10QQuickDial5setToEd@Qt_5_PRIVATE_API 5.6.0~beta
 _ZN10QQuickDial7setFromEd@Qt_5_PRIVATE_API 5.6.0~beta
 _ZN10QQuickDial7setLiveEb@Qt_5_PRIVATE_API 5.9.0~rc
 _ZN10QQuickDial7setWrapEb@Qt_5_PRIVATE_API 5.7.1
 _ZN10QQuickDial8decreaseEv@Qt_5_PRIVATE_API 5.6.0~beta
 _ZN10QQuickDial8increaseEv@Qt_5_PRIVATE_API 5.6.0~beta
 _ZN10QQuickDial8setValueEd@Qt_5_PRIVATE_API 5.6.0~beta
 _ZN10QQuickDial9setHandleEP10QQuickItem@Qt_5_PRIVATE_API 5.6.0~beta
 _ZN10QQuickDial9toChangedEv@Qt_5_PRIVATE_API 5.6.0~beta
 _ZN10QQuickDialC1EP10QQuickItem@Qt_5_PRIVATE_API 5.6.0~beta
 _ZN10QQuickDialC2EP10QQuickItem@Qt_5_PRIVATE_API 5.6.0~beta
 _ZN10QQuickMenu10insertItemEiP10QQuickItem@Qt_5_PRIVATE_API 5.6.0~beta
 _ZN10QQuickMenu10itemChangeEN10QQuickItem10ItemChangeERKNS0_14ItemChangeDataE@Qt_5_PRIVATE_API 5.7.1
 _ZN10QQuickMenu10removeItemEi@Qt_5_PRIVATE_API 5.6.0~beta
 _ZN10QQuickMenu11contentDataEv@Qt_5_PRIVATE_API 5.6.0~beta
 _ZN10QQuickMenu11qt_metacallEN11QMetaObject4CallEiPPv@Qt_5_PRIVATE_API 5.6.0~beta
 _ZN10QQuickMenu11qt_metacastEPKc@Qt_5_PRIVATE_API 5.6.0~beta
 _ZN10QQuickMenu12titleChangedEv@Qt_5_PRIVATE_API 5.7.1
 _ZN10QQuickMenu15keyReleaseEventEP9QKeyEvent@Qt_5_PRIVATE_API 5.7.1
 _ZN10QQuickMenu16staticMetaObjectE@Qt_5_PRIVATE_API 5.6.0~beta
 _ZN10QQuickMenu17componentCompleteEv@Qt_5_PRIVATE_API 5.7.1
 _ZN10QQuickMenu17contentItemChangeEP10QQuickItemS1_@Qt_5_PRIVATE_API 5.7.1
 _ZN10QQuickMenu7addItemEP10QQuickItem@Qt_5_PRIVATE_API 5.6.0~beta
 _ZN10QQuickMenu8moveItemEii@Qt_5_PRIVATE_API 5.6.0~beta
 _ZN10QQuickMenu8setTitleER7QString@Qt_5_PRIVATE_API 5.7.1
 _ZN10QQuickMenuC1EP7QObject@Qt_5_PRIVATE_API 5.6.0~beta
 _ZN10QQuickMenuC2EP7QObject@Qt_5_PRIVATE_API 5.6.0~beta
 _ZN10QQuickPage11contentDataEv@Qt_5_PRIVATE_API 5.7.1
 _ZN10QQuickPage11qt_metacallEN11QMetaObject4CallEiPPv@Qt_5_PRIVATE_API 5.7.1
 _ZN10QQuickPage11qt_metacastEPKc@Qt_5_PRIVATE_API 5.7.1
 _ZN10QQuickPage12titleChangedEv@Qt_5_PRIVATE_API 5.7.1
 _ZN10QQuickPage13footerChangedEv@Qt_5_PRIVATE_API 5.7.1
 _ZN10QQuickPage13headerChangedEv@Qt_5_PRIVATE_API 5.7.1
 _ZN10QQuickPage13paddingChangeERK9QMarginsFS2_@Qt_5_PRIVATE_API 5.7.1
 _ZN10QQuickPage13spacingChangeEdd@Qt_5_PRIVATE_API 5.9.0~rc
 _ZN10QQuickPage15contentChildrenEv@Qt_5_PRIVATE_API 5.7.1
 _ZN10QQuickPage15geometryChangedERK6QRectFS2_@Qt_5_PRIVATE_API 5.7.1
 _ZN10QQuickPage15setContentWidthEd@Qt_5_PRIVATE_API 5.9.0~rc
 _ZN10QQuickPage16setContentHeightEd@Qt_5_PRIVATE_API 5.9.0~rc
 _ZN10QQuickPage16staticMetaObjectE@Qt_5_PRIVATE_API 5.7.1
 _ZN10QQuickPage17componentCompleteEv@Qt_5_PRIVATE_API 5.9.1
 _ZN10QQuickPage17contentItemChangeEP10QQuickItemS1_@Qt_5_PRIVATE_API 5.7.1
 _ZN10QQuickPage19contentWidthChangedEv@Qt_5_PRIVATE_API 5.9.0~rc
 _ZN10QQuickPage20contentHeightChangedEv@Qt_5_PRIVATE_API 5.9.0~rc
 _ZN10QQuickPage22contentChildrenChangedEv@Qt_5_PRIVATE_API 5.7.1
 _ZN10QQuickPage26accessibilityActiveChangedEb@Qt_5_PRIVATE_API 5.9.0~rc
 _ZN10QQuickPage8setTitleERK7QString@Qt_5_PRIVATE_API 5.7.1
 _ZN10QQuickPage9setFooterEP10QQuickItem@Qt_5_PRIVATE_API 5.7.1
 _ZN10QQuickPage9setHeaderEP10QQuickItem@Qt_5_PRIVATE_API 5.7.1
 _ZN10QQuickPageC1EP10QQuickItem@Qt_5_PRIVATE_API 5.7.1
 _ZN10QQuickPageC2EP10QQuickItem@Qt_5_PRIVATE_API 5.7.1
 _ZN10QQuickPane11contentDataEv@Qt_5_PRIVATE_API 5.6.0~beta
 _ZN10QQuickPane11qt_metacallEN11QMetaObject4CallEiPPv@Qt_5_PRIVATE_API 5.6.0~beta
 _ZN10QQuickPane11qt_metacastEPKc@Qt_5_PRIVATE_API 5.6.0~beta
 _ZN10QQuickPane15contentChildrenEv@Qt_5_PRIVATE_API 5.6.0~beta
 _ZN10QQuickPane15setContentWidthEd@Qt_5_PRIVATE_API 5.6.0~beta
 _ZN10QQuickPane16setContentHeightEd@Qt_5_PRIVATE_API 5.6.0~beta
 _ZN10QQuickPane16staticMetaObjectE@Qt_5_PRIVATE_API 5.6.0~beta
 _ZN10QQuickPane17contentItemChangeEP10QQuickItemS1_@Qt_5_PRIVATE_API 5.6.0~beta
 _ZN10QQuickPane19contentWidthChangedEv@Qt_5_PRIVATE_API 5.6.0~beta
 _ZN10QQuickPane20contentHeightChangedEv@Qt_5_PRIVATE_API 5.6.0~beta
 _ZN10QQuickPane22contentChildrenChangedEv@Qt_5_PRIVATE_API 5.6.0~beta
 _ZN10QQuickPaneC1EP10QQuickItem@Qt_5_PRIVATE_API 5.6.0~beta
 _ZN10QQuickPaneC1ER17QQuickPanePrivateP10QQuickItem@Qt_5_PRIVATE_API 5.6.0~beta
 _ZN10QQuickPaneC2EP10QQuickItem@Qt_5_PRIVATE_API 5.6.0~beta
 _ZN10QQuickPaneC2ER17QQuickPanePrivateP10QQuickItem@Qt_5_PRIVATE_API 5.6.0~beta
 _ZN11QQuickFrame11qt_metacallEN11QMetaObject4CallEiPPv@Qt_5_PRIVATE_API 5.6.0~beta
 _ZN11QQuickFrame11qt_metacastEPKc@Qt_5_PRIVATE_API 5.6.0~beta
 _ZN11QQuickFrame16staticMetaObjectE@Qt_5_PRIVATE_API 5.6.0~beta
 _ZN11QQuickFrameC1EP10QQuickItem@Qt_5_PRIVATE_API 5.6.0~beta
 _ZN11QQuickFrameC1ER18QQuickFramePrivateP10QQuickItem@Qt_5_PRIVATE_API 5.6.0~beta
 _ZN11QQuickFrameC2EP10QQuickItem@Qt_5_PRIVATE_API 5.6.0~beta
 _ZN11QQuickFrameC2ER18QQuickFramePrivateP10QQuickItem@Qt_5_PRIVATE_API 5.6.0~beta
 _ZN11QQuickLabel10classBeginEv@Qt_5_PRIVATE_API 5.6.0~beta
 _ZN11QQuickLabel10itemChangeEN10QQuickItem10ItemChangeERKNS0_14ItemChangeDataE@Qt_5_PRIVATE_API 5.6.0~beta
 _ZN11QQuickLabel11fontChangedEv@Qt_5_PRIVATE_API 5.6.0~beta
 _ZN11QQuickLabel11qt_metacallEN11QMetaObject4CallEiPPv@Qt_5_PRIVATE_API 5.6.0~beta
 _ZN11QQuickLabel11qt_metacastEPKc@Qt_5_PRIVATE_API 5.6.0~beta
 _ZN11QQuickLabel13setBackgroundEP10QQuickItem@Qt_5_PRIVATE_API 5.6.0~beta
 _ZN11QQuickLabel15geometryChangedERK6QRectFS2_@Qt_5_PRIVATE_API 5.6.0~beta
 _ZN11QQuickLabel16staticMetaObjectE@Qt_5_PRIVATE_API 5.6.0~beta
 _ZN11QQuickLabel17backgroundChangedEv@Qt_5_PRIVATE_API 5.6.0~beta
 _ZN11QQuickLabel17componentCompleteEv@Qt_5_PRIVATE_API 5.7.1
 _ZN11QQuickLabel7setFontERK5QFont@Qt_5_PRIVATE_API 5.6.0~beta
 _ZN11QQuickLabelC1EP10QQuickItem@Qt_5_PRIVATE_API 5.6.0~beta
 _ZN11QQuickLabelC2EP10QQuickItem@Qt_5_PRIVATE_API 5.6.0~beta
 _ZN11QQuickPopup10classBeginEv@Qt_5_PRIVATE_API 5.7.1
 _ZN11QQuickPopup10dimChangedEv@Qt_5_PRIVATE_API 5.7.1
 _ZN11QQuickPopup10fontChangeERK5QFontS2_@Qt_5_PRIVATE_API 5.7.1
 _ZN11QQuickPopup10itemChangeEN10QQuickItem10ItemChangeERKNS0_14ItemChangeDataE@Qt_5_PRIVATE_API 5.7.1
 _ZN11QQuickPopup10resetWidthEv@Qt_5_PRIVATE_API 5.7.1
 _ZN11QQuickPopup10setMarginsEd@Qt_5_PRIVATE_API 5.7.1
 _ZN11QQuickPopup10setOpacityEd@Qt_5_PRIVATE_API 5.7.1
 _ZN11QQuickPopup10setPaddingEd@Qt_5_PRIVATE_API 5.7.1
 _ZN11QQuickPopup10setSpacingEd@Qt_5_PRIVATE_API 5.9.0~rc
 _ZN11QQuickPopup10setVisibleEb@Qt_5_PRIVATE_API 5.7.1
 _ZN11QQuickPopup10touchEventEP11QTouchEvent@Qt_5_PRIVATE_API 5.9.0~rc
 _ZN11QQuickPopup10wheelEventEP11QWheelEvent@Qt_5_PRIVATE_API 5.7.1
 _ZN11QQuickPopup11aboutToHideEv@Qt_5_PRIVATE_API 5.6.0~beta
 _ZN11QQuickPopup11aboutToShowEv@Qt_5_PRIVATE_API 5.6.0~beta
 _ZN11QQuickPopup11clipChangedEv@Qt_5_PRIVATE_API 5.7.1
 _ZN11QQuickPopup11contentDataEv@Qt_5_PRIVATE_API 5.7.1
 _ZN11QQuickPopup11exitChangedEv@Qt_5_PRIVATE_API 5.7.1
 _ZN11QQuickPopup11fontChangedEv@Qt_5_PRIVATE_API 5.7.1
 _ZN11QQuickPopup11qt_metacallEN11QMetaObject4CallEiPPv@Qt_5_PRIVATE_API 5.6.0~beta
 _ZN11QQuickPopup11qt_metacastEPKc@Qt_5_PRIVATE_API 5.6.0~beta
 _ZN11QQuickPopup11resetHeightEv@Qt_5_PRIVATE_API 5.7.1
 _ZN11QQuickPopup11resetLocaleEv@Qt_5_PRIVATE_API 5.7.1
 _ZN11QQuickPopup11setPositionERK7QPointF@Qt_5_PRIVATE_API 5.7.1
 _ZN11QQuickPopup12enterChangedEv@Qt_5_PRIVATE_API 5.7.1
 _ZN11QQuickPopup12focusChangedEv@Qt_5_PRIVATE_API 5.6.0~beta
 _ZN11QQuickPopup12focusInEventEP11QFocusEvent@Qt_5_PRIVATE_API 5.7.1
 _ZN11QQuickPopup12localeChangeERK7QLocaleS2_@Qt_5_PRIVATE_API 5.7.1
 _ZN11QQuickPopup12modalChangedEv@Qt_5_PRIVATE_API 5.6.0~beta
 _ZN11QQuickPopup12overlayEventEP10QQuickItemP6QEvent@Qt_5_PRIVATE_API 5.7.1
 _ZN11QQuickPopup12resetMarginsEv@Qt_5_PRIVATE_API 5.7.1
 _ZN11QQuickPopup12resetPaddingEv@Qt_5_PRIVATE_API 5.7.1
 _ZN11QQuickPopup12resetSpacingEv@Qt_5_PRIVATE_API 5.9.0~rc
 _ZN11QQuickPopup12scaleChangedEv@Qt_5_PRIVATE_API 5.7.1
 _ZN11QQuickPopup12setTopMarginEd@Qt_5_PRIVATE_API 5.7.1
 _ZN11QQuickPopup12widthChangedEv@Qt_5_PRIVATE_API 5.7.1
 _ZN11QQuickPopup13focusOutEventEP11QFocusEvent@Qt_5_PRIVATE_API 5.7.1
 _ZN11QQuickPopup13heightChangedEv@Qt_5_PRIVATE_API 5.7.1
 _ZN11QQuickPopup13keyPressEventEP9QKeyEvent@Qt_5_PRIVATE_API 5.7.1
 _ZN11QQuickPopup13localeChangedEv@Qt_5_PRIVATE_API 5.7.1
 _ZN11QQuickPopup13marginsChangeERK9QMarginsFS2_@Qt_5_PRIVATE_API 5.7.1
 _ZN11QQuickPopup13paddingChangeERK9QMarginsFS2_@Qt_5_PRIVATE_API 5.7.1
 _ZN11QQuickPopup13parentChangedEv@Qt_5_PRIVATE_API 5.7.1
 _ZN11QQuickPopup13setBackgroundEP10QQuickItem@Qt_5_PRIVATE_API 5.7.1
 _ZN11QQuickPopup13setLeftMarginEd@Qt_5_PRIVATE_API 5.7.1
 _ZN11QQuickPopup13setParentItemEP10QQuickItem@Qt_5_PRIVATE_API 5.7.1
 _ZN11QQuickPopup13setTopPaddingEd@Qt_5_PRIVATE_API 5.7.1
 _ZN11QQuickPopup13spacingChangeEdd@Qt_5_PRIVATE_API 5.9.0~rc
 _ZN11QQuickPopup13windowChangedEP12QQuickWindow@Qt_5_PRIVATE_API 5.7.1
 _ZN11QQuickPopup14marginsChangedEv@Qt_5_PRIVATE_API 5.7.1
 _ZN11QQuickPopup14mouseMoveEventEP11QMouseEvent@Qt_5_PRIVATE_API 5.7.1
 _ZN11QQuickPopup14opacityChangedEv@Qt_5_PRIVATE_API 5.7.1
 _ZN11QQuickPopup14paddingChangedEv@Qt_5_PRIVATE_API 5.7.1
 _ZN11QQuickPopup14resetTopMarginEv@Qt_5_PRIVATE_API 5.7.1
 _ZN11QQuickPopup14setClosePolicyE6QFlagsINS_15ClosePolicyFlagEE@Qt_5_PRIVATE_API 5.7.1
 _ZN11QQuickPopup14setContentItemEP10QQuickItem@Qt_5_PRIVATE_API 5.6.0~beta
 _ZN11QQuickPopup14setLeftPaddingEd@Qt_5_PRIVATE_API 5.7.1
 _ZN11QQuickPopup14setRightMarginEd@Qt_5_PRIVATE_API 5.7.1
 _ZN11QQuickPopup14spacingChangedEv@Qt_5_PRIVATE_API 5.9.0~rc
 _ZN11QQuickPopup14visibleChangedEv@Qt_5_PRIVATE_API 5.6.0~beta
 _ZN11QQuickPopup15contentChildrenEv@Qt_5_PRIVATE_API 5.7.1
 _ZN11QQuickPopup15geometryChangedERK6QRectFS2_@Qt_5_PRIVATE_API 5.7.1
 _ZN11QQuickPopup15keyReleaseEventEP9QKeyEvent@Qt_5_PRIVATE_API 5.7.1
 _ZN11QQuickPopup15mousePressEventEP11QMouseEvent@Qt_5_PRIVATE_API 5.7.1
 _ZN11QQuickPopup15resetLeftMarginEv@Qt_5_PRIVATE_API 5.7.1
 _ZN11QQuickPopup15resetTopPaddingEv@Qt_5_PRIVATE_API 5.7.1
 _ZN11QQuickPopup15setBottomMarginEd@Qt_5_PRIVATE_API 5.7.1
 _ZN11QQuickPopup15setContentWidthEd@Qt_5_PRIVATE_API 5.7.1
 _ZN11QQuickPopup15setRightPaddingEd@Qt_5_PRIVATE_API 5.7.1
 _ZN11QQuickPopup16forceActiveFocusEN2Qt11FocusReasonE@Qt_5_PRIVATE_API 5.7.1
 _ZN11QQuickPopup16mouseUngrabEventEv@Qt_5_PRIVATE_API 5.7.1
 _ZN11QQuickPopup16resetLeftPaddingEv@Qt_5_PRIVATE_API 5.7.1
 _ZN11QQuickPopup16resetRightMarginEv@Qt_5_PRIVATE_API 5.7.1
 _ZN11QQuickPopup16setBottomPaddingEd@Qt_5_PRIVATE_API 5.7.1
 _ZN11QQuickPopup16setContentHeightEd@Qt_5_PRIVATE_API 5.7.1
 _ZN11QQuickPopup16setImplicitWidthEd@Qt_5_PRIVATE_API 5.7.1
 _ZN11QQuickPopup16staticMetaObjectE@Qt_5_PRIVATE_API 5.6.0~beta
 _ZN11QQuickPopup16topMarginChangedEv@Qt_5_PRIVATE_API 5.7.1
 _ZN11QQuickPopup16touchUngrabEventEv@Qt_5_PRIVATE_API 5.9.0~rc
 _ZN11QQuickPopup17backgroundChangedEv@Qt_5_PRIVATE_API 5.7.1
 _ZN11QQuickPopup17componentCompleteEv@Qt_5_PRIVATE_API 5.7.1
 _ZN11QQuickPopup17contentItemChangeEP10QQuickItemS1_@Qt_5_PRIVATE_API 5.7.1
 _ZN11QQuickPopup17leftMarginChangedEv@Qt_5_PRIVATE_API 5.7.1
 _ZN11QQuickPopup17mouseReleaseEventEP11QMouseEvent@Qt_5_PRIVATE_API 5.7.1
 _ZN11QQuickPopup17resetBottomMarginEv@Qt_5_PRIVATE_API 5.7.1
 _ZN11QQuickPopup17resetRightPaddingEv@Qt_5_PRIVATE_API 5.7.1
 _ZN11QQuickPopup17setAccessibleNameERK7QString@Qt_5_PRIVATE_API 5.9.0~rc
 _ZN11QQuickPopup17setImplicitHeightEd@Qt_5_PRIVATE_API 5.7.1
 _ZN11QQuickPopup17topPaddingChangedEv@Qt_5_PRIVATE_API 5.7.1
 _ZN11QQuickPopup18accessiblePropertyEPKc@Qt_5_PRIVATE_API 5.9.0~rc
 _ZN11QQuickPopup18activeFocusChangedEv@Qt_5_PRIVATE_API 5.7.1
 _ZN11QQuickPopup18closePolicyChangedEv@Qt_5_PRIVATE_API 5.7.1
 _ZN11QQuickPopup18contentItemChangedEv@Qt_5_PRIVATE_API 5.6.0~beta
 _ZN11QQuickPopup18leftPaddingChangedEv@Qt_5_PRIVATE_API 5.7.1
 _ZN11QQuickPopup18resetBottomPaddingEv@Qt_5_PRIVATE_API 5.7.1
 _ZN11QQuickPopup18rightMarginChangedEv@Qt_5_PRIVATE_API 5.7.1
 _ZN11QQuickPopup18setTransformOriginENS_15TransformOriginE@Qt_5_PRIVATE_API 5.7.1
 _ZN11QQuickPopup19bottomMarginChangedEv@Qt_5_PRIVATE_API 5.7.1
 _ZN11QQuickPopup19contentWidthChangedEv@Qt_5_PRIVATE_API 5.7.1
 _ZN11QQuickPopup19rightPaddingChangedEv@Qt_5_PRIVATE_API 5.7.1
 _ZN11QQuickPopup20bottomPaddingChangedEv@Qt_5_PRIVATE_API 5.7.1
 _ZN11QQuickPopup20contentHeightChangedEv@Qt_5_PRIVATE_API 5.7.1
 _ZN11QQuickPopup20implicitWidthChangedEv@Qt_5_PRIVATE_API 5.7.1
 _ZN11QQuickPopup21availableWidthChangedEv@Qt_5_PRIVATE_API 5.7.1
 _ZN11QQuickPopup21childMouseEventFilterEP10QQuickItemP6QEvent@Qt_5_PRIVATE_API 5.7.1
 _ZN11QQuickPopup21implicitHeightChangedEv@Qt_5_PRIVATE_API 5.7.1
 _ZN11QQuickPopup21mouseDoubleClickEventEP11QMouseEvent@Qt_5_PRIVATE_API 5.7.1
 _ZN11QQuickPopup21setAccessiblePropertyEPKcRK8QVariant@Qt_5_PRIVATE_API 5.9.0~rc
 _ZN11QQuickPopup22availableHeightChangedEv@Qt_5_PRIVATE_API 5.7.1
 _ZN11QQuickPopup22contentChildrenChangedEv@Qt_5_PRIVATE_API 5.7.1
 _ZN11QQuickPopup26accessibilityActiveChangedEb@Qt_5_PRIVATE_API 5.9.0~rc
 _ZN11QQuickPopup26setFiltersChildMouseEventsEb@Qt_5_PRIVATE_API 5.7.1
 _ZN11QQuickPopup4openEv@Qt_5_PRIVATE_API 5.6.0~beta
 _ZN11QQuickPopup4setXEd@Qt_5_PRIVATE_API 5.7.1
 _ZN11QQuickPopup4setYEd@Qt_5_PRIVATE_API 5.7.1
 _ZN11QQuickPopup4setZEd@Qt_5_PRIVATE_API 5.7.1
 _ZN11QQuickPopup5closeEv@Qt_5_PRIVATE_API 5.6.0~beta
 _ZN11QQuickPopup6closedEv@Qt_5_PRIVATE_API 5.7.1
 _ZN11QQuickPopup6openedEv@Qt_5_PRIVATE_API 5.7.1
 _ZN11QQuickPopup6setDimEb@Qt_5_PRIVATE_API 5.7.1
 _ZN11QQuickPopup7setClipEb@Qt_5_PRIVATE_API 5.7.1
 _ZN11QQuickPopup7setExitEP16QQuickTransition@Qt_5_PRIVATE_API 5.7.1
 _ZN11QQuickPopup7setFontERK5QFont@Qt_5_PRIVATE_API 5.7.1
 _ZN11QQuickPopup8resetDimEv@Qt_5_PRIVATE_API 5.7.1
 _ZN11QQuickPopup8setEnterEP16QQuickTransition@Qt_5_PRIVATE_API 5.7.1
 _ZN11QQuickPopup8setFocusEb@Qt_5_PRIVATE_API 5.6.0~beta
 _ZN11QQuickPopup8setModalEb@Qt_5_PRIVATE_API 5.6.0~beta
 _ZN11QQuickPopup8setScaleEd@Qt_5_PRIVATE_API 5.7.1
 _ZN11QQuickPopup8setWidthEd@Qt_5_PRIVATE_API 5.7.1
 _ZN11QQuickPopup8xChangedEv@Qt_5_PRIVATE_API 5.7.1
 _ZN11QQuickPopup8yChangedEv@Qt_5_PRIVATE_API 5.7.1
 _ZN11QQuickPopup8zChangedEv@Qt_5_PRIVATE_API 5.7.1
 _ZN11QQuickPopup9resetFontEv@Qt_5_PRIVATE_API 5.7.1
 _ZN11QQuickPopup9setHeightEd@Qt_5_PRIVATE_API 5.7.1
 _ZN11QQuickPopup9setLocaleERK7QLocale@Qt_5_PRIVATE_API 5.7.1
 _ZN11QQuickPopupC1EP7QObject@Qt_5_PRIVATE_API 5.6.0~beta
 _ZN11QQuickPopupC1ER18QQuickPopupPrivateP7QObject@Qt_5_PRIVATE_API 5.6.0~beta
 _ZN11QQuickPopupC2EP7QObject@Qt_5_PRIVATE_API 5.6.0~beta
 _ZN11QQuickPopupC2ER18QQuickPopupPrivateP7QObject@Qt_5_PRIVATE_API 5.6.0~beta
 _ZN11QQuickPopupD0Ev@Qt_5_PRIVATE_API 5.6.0~beta
 _ZN11QQuickPopupD1Ev@Qt_5_PRIVATE_API 5.6.0~beta
 _ZN11QQuickPopupD2Ev@Qt_5_PRIVATE_API 5.6.0~beta
 _ZN11QQuickSwipe10setEnabledEb@Qt_5_PRIVATE_API 5.9.0~rc
 _ZN11QQuickSwipe11leftChangedEv@Qt_5_PRIVATE_API 5.7.1
 _ZN11QQuickSwipe11qt_metacallEN11QMetaObject4CallEiPPv@Qt_5_PRIVATE_API 5.7.1
 _ZN11QQuickSwipe11qt_metacastEPKc@Qt_5_PRIVATE_API 5.7.1
 _ZN11QQuickSwipe11setCompleteEb@Qt_5_PRIVATE_API 5.7.1
 _ZN11QQuickSwipe11setLeftItemEP10QQuickItem@Qt_5_PRIVATE_API 5.7.1
 _ZN11QQuickSwipe11setPositionEd@Qt_5_PRIVATE_API 5.7.1
 _ZN11QQuickSwipe12rightChangedEv@Qt_5_PRIVATE_API 5.7.1
 _ZN11QQuickSwipe12setRightItemEP10QQuickItem@Qt_5_PRIVATE_API 5.7.1
 _ZN11QQuickSwipe13behindChangedEv@Qt_5_PRIVATE_API 5.7.1
 _ZN11QQuickSwipe13setBehindItemEP10QQuickItem@Qt_5_PRIVATE_API 5.7.1
 _ZN11QQuickSwipe13setTransitionEP16QQuickTransition@Qt_5_PRIVATE_API 5.9.0~rc
 _ZN11QQuickSwipe14enabledChangedEv@Qt_5_PRIVATE_API 5.9.0~rc
 _ZN11QQuickSwipe15completeChangedEv@Qt_5_PRIVATE_API 5.7.1
 _ZN11QQuickSwipe15leftItemChangedEv@Qt_5_PRIVATE_API 5.7.1
 _ZN11QQuickSwipe15positionChangedEv@Qt_5_PRIVATE_API 5.7.1
 _ZN11QQuickSwipe16rightItemChangedEv@Qt_5_PRIVATE_API 5.7.1
 _ZN11QQuickSwipe16staticMetaObjectE@Qt_5_PRIVATE_API 5.7.1
 _ZN11QQuickSwipe17behindItemChangedEv@Qt_5_PRIVATE_API 5.7.1
 _ZN11QQuickSwipe17transitionChangedEv@Qt_5_PRIVATE_API 5.9.0~rc
 _ZN11QQuickSwipe4openEN19QQuickSwipeDelegate4SideE@Qt_5_PRIVATE_API 5.9.0~rc
 _ZN11QQuickSwipe5closeEv@Qt_5_PRIVATE_API 5.9.0~rc
 _ZN11QQuickSwipe6closedEv@Qt_5_PRIVATE_API 5.9.0~rc
 _ZN11QQuickSwipe6openedEv@Qt_5_PRIVATE_API 5.9.0~rc
 _ZN11QQuickSwipe7setLeftEP13QQmlComponent@Qt_5_PRIVATE_API 5.7.1
 _ZN11QQuickSwipe8setRightEP13QQmlComponent@Qt_5_PRIVATE_API 5.7.1
 _ZN11QQuickSwipe9completedEv@Qt_5_PRIVATE_API 5.9.0~rc
 _ZN11QQuickSwipe9setBehindEP13QQmlComponent@Qt_5_PRIVATE_API 5.7.1
 _ZN11QQuickSwipeC1EP19QQuickSwipeDelegate@Qt_5_PRIVATE_API 5.7.1
 _ZN11QQuickSwipeC2EP19QQuickSwipeDelegate@Qt_5_PRIVATE_API 5.7.1
 _ZN12QQuickButton11flatChangedEv@Qt_5_PRIVATE_API 5.7.1
 _ZN12QQuickButton11qt_metacallEN11QMetaObject4CallEiPPv@Qt_5_PRIVATE_API 5.6.0~beta
 _ZN12QQuickButton11qt_metacastEPKc@Qt_5_PRIVATE_API 5.6.0~beta
 _ZN12QQuickButton12buttonChangeEN20QQuickAbstractButton12ButtonChangeE@Qt_5_PRIVATE_API 5.9.0~rc
 _ZN12QQuickButton14setHighlightedEb@Qt_5_PRIVATE_API 5.7.1
 _ZN12QQuickButton16staticMetaObjectE@Qt_5_PRIVATE_API 5.6.0~beta
 _ZN12QQuickButton17autoRepeatChangedEv@Qt_5_PRIVATE_API 5.7.1
 _ZN12QQuickButton18highlightedChangedEv@Qt_5_PRIVATE_API 5.7.1
 _ZN12QQuickButton7setFlatEb@Qt_5_PRIVATE_API 5.7.1
 _ZN12QQuickButtonC1EP10QQuickItem@Qt_5_PRIVATE_API 5.6.0~beta
 _ZN12QQuickButtonC1ER19QQuickButtonPrivateP10QQuickItem@Qt_5_PRIVATE_API 5.9.0~rc
 _ZN12QQuickButtonC2EP10QQuickItem@Qt_5_PRIVATE_API 5.6.0~beta
 _ZN12QQuickButtonC2ER19QQuickButtonPrivateP10QQuickItem@Qt_5_PRIVATE_API 5.9.0~rc
 _ZN12QQuickDialog11qt_metacallEN11QMetaObject4CallEiPPv@Qt_5_PRIVATE_API 5.9.0~rc
 _ZN12QQuickDialog11qt_metacastEPKc@Qt_5_PRIVATE_API 5.9.0~rc
 _ZN12QQuickDialog12titleChangedEv@Qt_5_PRIVATE_API 5.9.0~rc
 _ZN12QQuickDialog13footerChangedEv@Qt_5_PRIVATE_API 5.9.0~rc
 _ZN12QQuickDialog13headerChangedEv@Qt_5_PRIVATE_API 5.9.0~rc
 _ZN12QQuickDialog13paddingChangeERK9QMarginsFS2_@Qt_5_PRIVATE_API 5.9.0~rc
 _ZN12QQuickDialog13spacingChangeEdd@Qt_5_PRIVATE_API 5.9.0~rc
 _ZN12QQuickDialog15geometryChangedERK6QRectFS2_@Qt_5_PRIVATE_API 5.9.0~rc
 _ZN12QQuickDialog16staticMetaObjectE@Qt_5_PRIVATE_API 5.9.0~rc
 _ZN12QQuickDialog18setStandardButtonsE6QFlagsIN21QPlatformDialogHelper14StandardButtonEE@Qt_5_PRIVATE_API 5.9.0~rc
 _ZN12QQuickDialog22standardButtonsChangedEv@Qt_5_PRIVATE_API 5.9.0~rc
 _ZN12QQuickDialog26accessibilityActiveChangedEb@Qt_5_PRIVATE_API 5.9.0~rc
 _ZN12QQuickDialog6acceptEv@Qt_5_PRIVATE_API 5.9.0~rc
 _ZN12QQuickDialog6rejectEv@Qt_5_PRIVATE_API 5.9.0~rc
 _ZN12QQuickDialog8acceptedEv@Qt_5_PRIVATE_API 5.9.0~rc
 _ZN12QQuickDialog8rejectedEv@Qt_5_PRIVATE_API 5.9.0~rc
 _ZN12QQuickDialog8setTitleERK7QString@Qt_5_PRIVATE_API 5.9.0~rc
 _ZN12QQuickDialog9setFooterEP10QQuickItem@Qt_5_PRIVATE_API 5.9.0~rc
 _ZN12QQuickDialog9setHeaderEP10QQuickItem@Qt_5_PRIVATE_API 5.9.0~rc
 _ZN12QQuickDialogC1EP7QObject@Qt_5_PRIVATE_API 5.9.0~rc
 _ZN12QQuickDialogC2EP7QObject@Qt_5_PRIVATE_API 5.9.0~rc
 _ZN12QQuickDrawer10touchEventEP11QTouchEvent@Qt_5_PRIVATE_API 5.9.0~rc
 _ZN12QQuickDrawer11edgeChangedEv@Qt_5_PRIVATE_API 5.6.0~beta
 _ZN12QQuickDrawer11qt_metacallEN11QMetaObject4CallEiPPv@Qt_5_PRIVATE_API 5.6.0~beta
 _ZN12QQuickDrawer11qt_metacastEPKc@Qt_5_PRIVATE_API 5.6.0~beta
 _ZN12QQuickDrawer11setPositionEd@Qt_5_PRIVATE_API 5.6.0~beta
 _ZN12QQuickDrawer12overlayEventEP10QQuickItemP6QEvent@Qt_5_PRIVATE_API 5.7.1
 _ZN12QQuickDrawer13setDragMarginEd@Qt_5_PRIVATE_API 5.7.1
 _ZN12QQuickDrawer14mouseMoveEventEP11QMouseEvent@Qt_5_PRIVATE_API 5.6.0~beta
 _ZN12QQuickDrawer14setInteractiveEb@Qt_5_PRIVATE_API 5.9.0~rc
 _ZN12QQuickDrawer15geometryChangedERK6QRectFS2_@Qt_5_PRIVATE_API 5.6.0~beta
 _ZN12QQuickDrawer15positionChangedEv@Qt_5_PRIVATE_API 5.6.0~beta
 _ZN12QQuickDrawer15resetDragMarginEv@Qt_5_PRIVATE_API 5.7.1
 _ZN12QQuickDrawer16staticMetaObjectE@Qt_5_PRIVATE_API 5.6.0~beta
 _ZN12QQuickDrawer17dragMarginChangedEv@Qt_5_PRIVATE_API 5.7.1
 _ZN12QQuickDrawer18interactiveChangedEv@Qt_5_PRIVATE_API 5.9.0~rc
 _ZN12QQuickDrawer21childMouseEventFilterEP10QQuickItemP6QEvent@Qt_5_PRIVATE_API 5.6.0~beta
 _ZN12QQuickDrawer7setEdgeEN2Qt4EdgeE@Qt_5_PRIVATE_API 5.6.0~beta
 _ZN12QQuickDrawerC1EP7QObject@Qt_5_PRIVATE_API 5.7.1
 _ZN12QQuickDrawerC2EP7QObject@Qt_5_PRIVATE_API 5.7.1
 _ZN12QQuickSlider10setPressedEb@Qt_5_PRIVATE_API 5.6.0~beta
 _ZN12QQuickSlider10touchEventEP11QTouchEvent@Qt_5_PRIVATE_API 5.9.0~rc
 _ZN12QQuickSlider10wheelEventEP11QWheelEvent@Qt_5_PRIVATE_API 5.7.1
 _ZN12QQuickSlider11fromChangedEv@Qt_5_PRIVATE_API 5.6.0~beta
 _ZN12QQuickSlider11liveChangedEv@Qt_5_PRIVATE_API 5.9.0~rc
 _ZN12QQuickSlider11qt_metacallEN11QMetaObject4CallEiPPv@Qt_5_PRIVATE_API 5.6.0~beta
 _ZN12QQuickSlider11qt_metacastEPKc@Qt_5_PRIVATE_API 5.6.0~beta
 _ZN12QQuickSlider11setSnapModeENS_8SnapModeE@Qt_5_PRIVATE_API 5.6.0~beta
 _ZN12QQuickSlider11setStepSizeEd@Qt_5_PRIVATE_API 5.6.0~beta
 _ZN12QQuickSlider12mirrorChangeEv@Qt_5_PRIVATE_API 5.6.0~beta
 _ZN12QQuickSlider12valueChangedEv@Qt_5_PRIVATE_API 5.6.0~beta
 _ZN12QQuickSlider13handleChangedEv@Qt_5_PRIVATE_API 5.6.0~beta
 _ZN12QQuickSlider13keyPressEventEP9QKeyEvent@Qt_5_PRIVATE_API 5.6.0~beta
 _ZN12QQuickSlider14mouseMoveEventEP11QMouseEvent@Qt_5_PRIVATE_API 5.6.0~beta
 _ZN12QQuickSlider14pressedChangedEv@Qt_5_PRIVATE_API 5.6.0~beta
 _ZN12QQuickSlider14setOrientationEN2Qt11OrientationE@Qt_5_PRIVATE_API 5.6.0~beta
 _ZN12QQuickSlider15keyReleaseEventEP9QKeyEvent@Qt_5_PRIVATE_API 5.6.0~beta
 _ZN12QQuickSlider15mousePressEventEP11QMouseEvent@Qt_5_PRIVATE_API 5.6.0~beta
 _ZN12QQuickSlider15positionChangedEv@Qt_5_PRIVATE_API 5.6.0~beta
 _ZN12QQuickSlider15snapModeChangedEv@Qt_5_PRIVATE_API 5.6.0~beta
 _ZN12QQuickSlider15stepSizeChangedEv@Qt_5_PRIVATE_API 5.6.0~beta
 _ZN12QQuickSlider16staticMetaObjectE@Qt_5_PRIVATE_API 5.6.0~beta
 _ZN12QQuickSlider17componentCompleteEv@Qt_5_PRIVATE_API 5.6.0~beta
 _ZN12QQuickSlider18orientationChangedEv@Qt_5_PRIVATE_API 5.6.0~beta
 _ZN12QQuickSlider21visualPositionChangedEv@Qt_5_PRIVATE_API 5.6.0~beta
 _ZN12QQuickSlider26accessibilityActiveChangedEb@Qt_5_PRIVATE_API 5.6.0~beta
 _ZN12QQuickSlider5movedEv@Qt_5_PRIVATE_API 5.9.0~rc
 _ZN12QQuickSlider5setToEd@Qt_5_PRIVATE_API 5.6.0~beta
 _ZN12QQuickSlider7setFromEd@Qt_5_PRIVATE_API 5.6.0~beta
 _ZN12QQuickSlider7setLiveEb@Qt_5_PRIVATE_API 5.9.0~rc
 _ZN12QQuickSlider8decreaseEv@Qt_5_PRIVATE_API 5.6.0~beta
 _ZN12QQuickSlider8increaseEv@Qt_5_PRIVATE_API 5.6.0~beta
 _ZN12QQuickSlider8setValueEd@Qt_5_PRIVATE_API 5.6.0~beta
 _ZN12QQuickSlider9setHandleEP10QQuickItem@Qt_5_PRIVATE_API 5.6.0~beta
 _ZN12QQuickSlider9toChangedEv@Qt_5_PRIVATE_API 5.6.0~beta
 _ZN12QQuickSliderC1EP10QQuickItem@Qt_5_PRIVATE_API 5.6.0~beta
 _ZN12QQuickSliderC2EP10QQuickItem@Qt_5_PRIVATE_API 5.6.0~beta
 _ZN12QQuickSwitch10touchEventEP11QTouchEvent@Qt_5_PRIVATE_API 5.9.0~rc
 _ZN12QQuickSwitch11qt_metacallEN11QMetaObject4CallEiPPv@Qt_5_PRIVATE_API 5.6.0~beta
 _ZN12QQuickSwitch11qt_metacastEPKc@Qt_5_PRIVATE_API 5.6.0~beta
 _ZN12QQuickSwitch11setPositionEd@Qt_5_PRIVATE_API 5.6.0~beta
 _ZN12QQuickSwitch12buttonChangeEN20QQuickAbstractButton12ButtonChangeE@Qt_5_PRIVATE_API 5.9.0~rc
 _ZN12QQuickSwitch12mirrorChangeEv@Qt_5_PRIVATE_API 5.6.0~beta
 _ZN12QQuickSwitch14mouseMoveEventEP11QMouseEvent@Qt_5_PRIVATE_API 5.7.1
 _ZN12QQuickSwitch14nextCheckStateEv@Qt_5_PRIVATE_API 5.7.1
 _ZN12QQuickSwitch15positionChangedEv@Qt_5_PRIVATE_API 5.6.0~beta
 _ZN12QQuickSwitch16staticMetaObjectE@Qt_5_PRIVATE_API 5.6.0~beta
 _ZN12QQuickSwitch21visualPositionChangedEv@Qt_5_PRIVATE_API 5.6.0~beta
 _ZN12QQuickSwitchC1EP10QQuickItem@Qt_5_PRIVATE_API 5.6.0~beta
 _ZN12QQuickSwitchC2EP10QQuickItem@Qt_5_PRIVATE_API 5.6.0~beta
 _ZN12QQuickTabBar11itemRemovedEiP10QQuickItem@Qt_5_PRIVATE_API 5.6.0~beta
 _ZN12QQuickTabBar11qt_metacallEN11QMetaObject4CallEiPPv@Qt_5_PRIVATE_API 5.6.0~beta
 _ZN12QQuickTabBar11qt_metacastEPKc@Qt_5_PRIVATE_API 5.6.0~beta
 _ZN12QQuickTabBar11setPositionENS_8PositionE@Qt_5_PRIVATE_API 5.7.1
 _ZN12QQuickTabBar12updatePolishEv@Qt_5_PRIVATE_API 5.6.0~beta
 _ZN12QQuickTabBar15geometryChangedERK6QRectFS2_@Qt_5_PRIVATE_API 5.6.0~beta
 _ZN12QQuickTabBar15positionChangedEv@Qt_5_PRIVATE_API 5.7.1
 _ZN12QQuickTabBar15setContentWidthEd@Qt_5_PRIVATE_API 5.9.0~rc
 _ZN12QQuickTabBar16setContentHeightEd@Qt_5_PRIVATE_API 5.9.0~rc
 _ZN12QQuickTabBar16staticMetaObjectE@Qt_5_PRIVATE_API 5.6.0~beta
 _ZN12QQuickTabBar17componentCompleteEv@Qt_5_PRIVATE_API 5.6.0~beta
 _ZN12QQuickTabBar17resetContentWidthEv@Qt_5_PRIVATE_API 5.9.0~rc
 _ZN12QQuickTabBar18resetContentHeightEv@Qt_5_PRIVATE_API 5.9.0~rc
 _ZN12QQuickTabBar19contentWidthChangedEv@Qt_5_PRIVATE_API 5.9.0~rc
 _ZN12QQuickTabBar20contentHeightChangedEv@Qt_5_PRIVATE_API 5.9.0~rc
 _ZN12QQuickTabBar9itemAddedEiP10QQuickItem@Qt_5_PRIVATE_API 5.6.0~beta
 _ZN12QQuickTabBarC1EP10QQuickItem@Qt_5_PRIVATE_API 5.6.0~beta
 _ZN12QQuickTabBarC2EP10QQuickItem@Qt_5_PRIVATE_API 5.6.0~beta
 _ZN13QQuickControl10classBeginEv@Qt_5_PRIVATE_API 5.6.0~beta
 _ZN13QQuickControl10fontChangeERK5QFontS2_@Qt_5_PRIVATE_API 5.7.1
 _ZN13QQuickControl10itemChangeEN10QQuickItem10ItemChangeERKNS0_14ItemChangeDataE@Qt_5_PRIVATE_API 5.6.0~beta
 _ZN13QQuickControl10setHoveredEb@Qt_5_PRIVATE_API 5.7.1
 _ZN13QQuickControl10setPaddingEd@Qt_5_PRIVATE_API 5.6.0~beta
 _ZN13QQuickControl10setSpacingEd@Qt_5_PRIVATE_API 5.6.0~beta
 _ZN13QQuickControl10touchEventEP11QTouchEvent@Qt_5_PRIVATE_API 5.9.0~rc
 _ZN13QQuickControl10wheelEventEP11QWheelEvent@Qt_5_PRIVATE_API 5.7.1
 _ZN13QQuickControl11fontChangedEv@Qt_5_PRIVATE_API 5.6.0~beta
 _ZN13QQuickControl11hoverChangeEv@Qt_5_PRIVATE_API 5.9.0~rc
 _ZN13QQuickControl11qt_metacallEN11QMetaObject4CallEiPPv@Qt_5_PRIVATE_API 5.6.0~beta
 _ZN13QQuickControl11qt_metacastEPKc@Qt_5_PRIVATE_API 5.6.0~beta
 _ZN13QQuickControl11resetLocaleEv@Qt_5_PRIVATE_API 5.7.1
 _ZN13QQuickControl12focusInEventEP11QFocusEvent@Qt_5_PRIVATE_API 5.6.0~beta
 _ZN13QQuickControl12localeChangeERK7QLocaleS2_@Qt_5_PRIVATE_API 5.6.0~beta
 _ZN13QQuickControl12mirrorChangeEv@Qt_5_PRIVATE_API 5.6.0~beta
 _ZN13QQuickControl12resetPaddingEv@Qt_5_PRIVATE_API 5.6.0~beta
 _ZN13QQuickControl12resetSpacingEv@Qt_5_PRIVATE_API 5.6.0~beta
 _ZN13QQuickControl13focusOutEventEP11QFocusEvent@Qt_5_PRIVATE_API 5.6.0~beta
 _ZN13QQuickControl13localeChangedEv@Qt_5_PRIVATE_API 5.6.0~beta
 _ZN13QQuickControl13paddingChangeERK9QMarginsFS2_@Qt_5_PRIVATE_API 5.6.0~beta
 _ZN13QQuickControl13setBackgroundEP10QQuickItem@Qt_5_PRIVATE_API 5.6.0~beta
 _ZN13QQuickControl13setTopPaddingEd@Qt_5_PRIVATE_API 5.6.0~beta
 _ZN13QQuickControl13spacingChangeEdd@Qt_5_PRIVATE_API 5.9.0~rc
 _ZN13QQuickControl14hoverMoveEventEP11QHoverEvent@Qt_5_PRIVATE_API 5.9.0~rc
 _ZN13QQuickControl14hoveredChangedEv@Qt_5_PRIVATE_API 5.7.1
 _ZN13QQuickControl14mouseMoveEventEP11QMouseEvent@Qt_5_PRIVATE_API 5.6.0~beta
 _ZN13QQuickControl14paddingChangedEv@Qt_5_PRIVATE_API 5.6.0~beta
 _ZN13QQuickControl14setContentItemEP10QQuickItem@Qt_5_PRIVATE_API 5.6.0~beta
 _ZN13QQuickControl14setFocusPolicyEN2Qt11FocusPolicyE@Qt_5_PRIVATE_API 5.7.1
 _ZN13QQuickControl14setFocusReasonEN2Qt11FocusReasonE@Qt_5_PRIVATE_API 5.6.0~beta
 _ZN13QQuickControl14setLeftPaddingEd@Qt_5_PRIVATE_API 5.6.0~beta
 _ZN13QQuickControl14spacingChangedEv@Qt_5_PRIVATE_API 5.6.0~beta
 _ZN13QQuickControl15geometryChangedERK6QRectFS2_@Qt_5_PRIVATE_API 5.6.0~beta
 _ZN13QQuickControl15hoverEnterEventEP11QHoverEvent@Qt_5_PRIVATE_API 5.7.1
 _ZN13QQuickControl15hoverLeaveEventEP11QHoverEvent@Qt_5_PRIVATE_API 5.7.1
 _ZN13QQuickControl15mirroredChangedEv@Qt_5_PRIVATE_API 5.6.0~beta
 _ZN13QQuickControl15mousePressEventEP11QMouseEvent@Qt_5_PRIVATE_API 5.6.0~beta
 _ZN13QQuickControl15resetTopPaddingEv@Qt_5_PRIVATE_API 5.6.0~beta
 _ZN13QQuickControl15setHoverEnabledEb@Qt_5_PRIVATE_API 5.7.1
 _ZN13QQuickControl15setRightPaddingEd@Qt_5_PRIVATE_API 5.6.0~beta
 _ZN13QQuickControl15setWheelEnabledEb@Qt_5_PRIVATE_API 5.7.1
 _ZN13QQuickControl16mouseUngrabEventEv@Qt_5_PRIVATE_API 5.9.0~rc
 _ZN13QQuickControl16resetLeftPaddingEv@Qt_5_PRIVATE_API 5.6.0~beta
 _ZN13QQuickControl16setBottomPaddingEd@Qt_5_PRIVATE_API 5.6.0~beta
 _ZN13QQuickControl16staticMetaObjectE@Qt_5_PRIVATE_API 5.6.0~beta
 _ZN13QQuickControl16touchUngrabEventEv@Qt_5_PRIVATE_API 5.9.0~rc
 _ZN13QQuickControl17backgroundChangedEv@Qt_5_PRIVATE_API 5.6.0~beta
 _ZN13QQuickControl17componentCompleteEv@Qt_5_PRIVATE_API 5.6.0~beta
 _ZN13QQuickControl17contentItemChangeEP10QQuickItemS1_@Qt_5_PRIVATE_API 5.6.0~beta
 _ZN13QQuickControl17mouseReleaseEventEP11QMouseEvent@Qt_5_PRIVATE_API 5.6.0~beta
 _ZN13QQuickControl17resetHoverEnabledEv@Qt_5_PRIVATE_API 5.9.0~rc
 _ZN13QQuickControl17resetRightPaddingEv@Qt_5_PRIVATE_API 5.6.0~beta
 _ZN13QQuickControl17setAccessibleNameERK7QString@Qt_5_PRIVATE_API 5.6.0~beta
 _ZN13QQuickControl17topPaddingChangedEv@Qt_5_PRIVATE_API 5.6.0~beta
 _ZN13QQuickControl18accessiblePropertyEPKc@Qt_5_PRIVATE_API 5.6.0~beta
 _ZN13QQuickControl18contentItemChangedEv@Qt_5_PRIVATE_API 5.6.0~beta
 _ZN13QQuickControl18focusPolicyChangedEv@Qt_5_PRIVATE_API 5.7.1
 _ZN13QQuickControl18focusReasonChangedEv@Qt_5_PRIVATE_API 5.6.0~beta
 _ZN13QQuickControl18leftPaddingChangedEv@Qt_5_PRIVATE_API 5.6.0~beta
 _ZN13QQuickControl18resetBottomPaddingEv@Qt_5_PRIVATE_API 5.6.0~beta
 _ZN13QQuickControl18visualFocusChangedEv@Qt_5_PRIVATE_API 5.7.1
 _ZN13QQuickControl19hoverEnabledChangedEv@Qt_5_PRIVATE_API 5.7.1
 _ZN13QQuickControl19rightPaddingChangedEv@Qt_5_PRIVATE_API 5.6.0~beta
 _ZN13QQuickControl19wheelEnabledChangedEv@Qt_5_PRIVATE_API 5.7.1
 _ZN13QQuickControl20bottomPaddingChangedEv@Qt_5_PRIVATE_API 5.6.0~beta
 _ZN13QQuickControl21availableWidthChangedEv@Qt_5_PRIVATE_API 5.6.0~beta
 _ZN13QQuickControl21setAccessiblePropertyEPKcRK8QVariant@Qt_5_PRIVATE_API 5.6.0~beta
 _ZN13QQuickControl22availableHeightChangedEv@Qt_5_PRIVATE_API 5.6.0~beta
 _ZN13QQuickControl26accessibilityActiveChangedEb@Qt_5_PRIVATE_API 5.6.0~beta
 _ZN13QQuickControl7setFontERK5QFont@Qt_5_PRIVATE_API 5.6.0~beta
 _ZN13QQuickControl9resetFontEv@Qt_5_PRIVATE_API 5.6.0~beta
 _ZN13QQuickControl9setLocaleERK7QLocale@Qt_5_PRIVATE_API 5.6.0~beta
 _ZN13QQuickControlC1EP10QQuickItem@Qt_5_PRIVATE_API 5.6.0~beta
 _ZN13QQuickControlC1ER20QQuickControlPrivateP10QQuickItem@Qt_5_PRIVATE_API 5.6.0~beta
 _ZN13QQuickControlC2EP10QQuickItem@Qt_5_PRIVATE_API 5.6.0~beta
 _ZN13QQuickControlC2ER20QQuickControlPrivateP10QQuickItem@Qt_5_PRIVATE_API 5.6.0~beta
 _ZN13QQuickOverlay10itemChangeEN10QQuickItem10ItemChangeERKNS0_14ItemChangeDataE@Qt_5_PRIVATE_API 5.7.1
 _ZN13QQuickOverlay10touchEventEP11QTouchEvent@Qt_5_PRIVATE_API 5.9.0~rc
 _ZN13QQuickOverlay10wheelEventEP11QWheelEvent@Qt_5_PRIVATE_API 5.7.1
 _ZN13QQuickOverlay11eventFilterEP7QObjectP6QEvent@Qt_5_PRIVATE_API 5.9.0~rc
 _ZN13QQuickOverlay11qt_metacallEN11QMetaObject4CallEiPPv@Qt_5_PRIVATE_API 5.7.1
 _ZN13QQuickOverlay11qt_metacastEPKc@Qt_5_PRIVATE_API 5.7.1
 _ZN13QQuickOverlay11setModelessEP13QQmlComponent@Qt_5_PRIVATE_API 5.7.1
 _ZN13QQuickOverlay12modalChangedEv@Qt_5_PRIVATE_API 5.7.1
 _ZN13QQuickOverlay14mouseMoveEventEP11QMouseEvent@Qt_5_PRIVATE_API 5.7.1
 _ZN13QQuickOverlay15geometryChangedERK6QRectFS2_@Qt_5_PRIVATE_API 5.7.1
 _ZN13QQuickOverlay15modelessChangedEv@Qt_5_PRIVATE_API 5.7.1
 _ZN13QQuickOverlay15mousePressEventEP11QMouseEvent@Qt_5_PRIVATE_API 5.7.1
 _ZN13QQuickOverlay16staticMetaObjectE@Qt_5_PRIVATE_API 5.7.1
 _ZN13QQuickOverlay17mouseReleaseEventEP11QMouseEvent@Qt_5_PRIVATE_API 5.7.1
 _ZN13QQuickOverlay21childMouseEventFilterEP10QQuickItemP6QEvent@Qt_5_PRIVATE_API 5.7.1
 _ZN13QQuickOverlay7overlayEP12QQuickWindow@Qt_5_PRIVATE_API 5.7.1
 _ZN13QQuickOverlay7pressedEv@Qt_5_PRIVATE_API 5.7.1
 _ZN13QQuickOverlay8releasedEv@Qt_5_PRIVATE_API 5.7.1
 _ZN13QQuickOverlay8setModalEP13QQmlComponent@Qt_5_PRIVATE_API 5.7.1
 _ZN13QQuickOverlayC1EP10QQuickItem@Qt_5_PRIVATE_API 5.7.1
 _ZN13QQuickOverlayC2EP10QQuickItem@Qt_5_PRIVATE_API 5.7.1
 _ZN13QQuickOverlayD0Ev@Qt_5_PRIVATE_API 5.7.1
 _ZN13QQuickOverlayD1Ev@Qt_5_PRIVATE_API 5.7.1
 _ZN13QQuickOverlayD2Ev@Qt_5_PRIVATE_API 5.7.1
 _ZN13QQuickSpinBox10itemChangeEN10QQuickItem10ItemChangeERKNS0_14ItemChangeDataE@Qt_5_PRIVATE_API 5.6.0~beta
 _ZN13QQuickSpinBox10timerEventEP11QTimerEvent@Qt_5_PRIVATE_API 5.6.0~beta
 _ZN13QQuickSpinBox10wheelEventEP11QWheelEvent@Qt_5_PRIVATE_API 5.7.1
 _ZN13QQuickSpinBox11fromChangedEv@Qt_5_PRIVATE_API 5.6.0~beta
 _ZN13QQuickSpinBox11qt_metacallEN11QMetaObject4CallEiPPv@Qt_5_PRIVATE_API 5.6.0~beta
 _ZN13QQuickSpinBox11qt_metacastEPKc@Qt_5_PRIVATE_API 5.6.0~beta
 _ZN13QQuickSpinBox11setEditableEb@Qt_5_PRIVATE_API 5.7.1
 _ZN13QQuickSpinBox11setStepSizeEi@Qt_5_PRIVATE_API 5.6.0~beta
 _ZN13QQuickSpinBox12focusInEventEP11QFocusEvent@Qt_5_PRIVATE_API 5.9.0~rc
 _ZN13QQuickSpinBox12setValidatorEP10QValidator@Qt_5_PRIVATE_API 5.6.0~beta
 _ZN13QQuickSpinBox12valueChangedEv@Qt_5_PRIVATE_API 5.6.0~beta
 _ZN13QQuickSpinBox13keyPressEventEP9QKeyEvent@Qt_5_PRIVATE_API 5.6.0~beta
 _ZN13QQuickSpinBox13valueModifiedEv@Qt_5_PRIVATE_API 5.9.0~rc
 _ZN13QQuickSpinBox14hoverMoveEventEP11QHoverEvent@Qt_5_PRIVATE_API 5.9.0~rc
 _ZN13QQuickSpinBox15editableChangedEv@Qt_5_PRIVATE_API 5.7.1
 _ZN13QQuickSpinBox15hoverEnterEventEP11QHoverEvent@Qt_5_PRIVATE_API 5.9.0~rc
 _ZN13QQuickSpinBox15hoverLeaveEventEP11QHoverEvent@Qt_5_PRIVATE_API 5.9.0~rc
 _ZN13QQuickSpinBox15keyReleaseEventEP9QKeyEvent@Qt_5_PRIVATE_API 5.6.0~beta
 _ZN13QQuickSpinBox15stepSizeChangedEv@Qt_5_PRIVATE_API 5.6.0~beta
 _ZN13QQuickSpinBox16setTextFromValueERK8QJSValue@Qt_5_PRIVATE_API 5.6.0~beta
 _ZN13QQuickSpinBox16setValueFromTextERK8QJSValue@Qt_5_PRIVATE_API 5.6.0~beta
 _ZN13QQuickSpinBox16staticMetaObjectE@Qt_5_PRIVATE_API 5.6.0~beta
 _ZN13QQuickSpinBox16validatorChangedEv@Qt_5_PRIVATE_API 5.6.0~beta
 _ZN13QQuickSpinBox17componentCompleteEv@Qt_5_PRIVATE_API 5.6.0~beta
 _ZN13QQuickSpinBox17contentItemChangeEP10QQuickItemS1_@Qt_5_PRIVATE_API 5.6.0~beta
 _ZN13QQuickSpinBox19setInputMethodHintsE6QFlagsIN2Qt15InputMethodHintEE@Qt_5_PRIVATE_API 5.9.0~rc
 _ZN13QQuickSpinBox20textFromValueChangedEv@Qt_5_PRIVATE_API 5.6.0~beta
 _ZN13QQuickSpinBox20valueFromTextChangedEv@Qt_5_PRIVATE_API 5.6.0~beta
 _ZN13QQuickSpinBox23inputMethodHintsChangedEv@Qt_5_PRIVATE_API 5.9.0~rc
 _ZN13QQuickSpinBox26accessibilityActiveChangedEb@Qt_5_PRIVATE_API 5.9.1
 _ZN13QQuickSpinBox27inputMethodComposingChangedEv@Qt_5_PRIVATE_API 5.9.0~rc
 _ZN13QQuickSpinBox5setToEi@Qt_5_PRIVATE_API 5.6.0~beta
 _ZN13QQuickSpinBox7setFromEi@Qt_5_PRIVATE_API 5.6.0~beta
 _ZN13QQuickSpinBox8decreaseEv@Qt_5_PRIVATE_API 5.6.0~beta
 _ZN13QQuickSpinBox8increaseEv@Qt_5_PRIVATE_API 5.6.0~beta
 _ZN13QQuickSpinBox8setValueEi@Qt_5_PRIVATE_API 5.6.0~beta
 _ZN13QQuickSpinBox9toChangedEv@Qt_5_PRIVATE_API 5.6.0~beta
 _ZN13QQuickSpinBoxC1EP10QQuickItem@Qt_5_PRIVATE_API 5.6.0~beta
 _ZN13QQuickSpinBoxC2EP10QQuickItem@Qt_5_PRIVATE_API 5.6.0~beta
 _ZN13QQuickToolBar11qt_metacallEN11QMetaObject4CallEiPPv@Qt_5_PRIVATE_API 5.6.0~beta
 _ZN13QQuickToolBar11qt_metacastEPKc@Qt_5_PRIVATE_API 5.6.0~beta
 _ZN13QQuickToolBar11setPositionENS_8PositionE@Qt_5_PRIVATE_API 5.7.1
 _ZN13QQuickToolBar15positionChangedEv@Qt_5_PRIVATE_API 5.7.1
 _ZN13QQuickToolBar16staticMetaObjectE@Qt_5_PRIVATE_API 5.6.0~beta
 _ZN13QQuickToolBarC1EP10QQuickItem@Qt_5_PRIVATE_API 5.6.0~beta
 _ZN13QQuickToolBarC2EP10QQuickItem@Qt_5_PRIVATE_API 5.6.0~beta
 _ZN13QQuickToolTip10itemChangeEN10QQuickItem10ItemChangeERKNS0_14ItemChangeDataE@Qt_5_PRIVATE_API 5.7.1
 _ZN13QQuickToolTip10setTimeoutEi@Qt_5_PRIVATE_API 5.7.1
 _ZN13QQuickToolTip10setVisibleEb@Qt_5_PRIVATE_API 5.7.1
 _ZN13QQuickToolTip10timerEventEP11QTimerEvent@Qt_5_PRIVATE_API 5.7.1
 _ZN13QQuickToolTip11qt_metacallEN11QMetaObject4CallEiPPv@Qt_5_PRIVATE_API 5.7.1
 _ZN13QQuickToolTip11qt_metacastEPKc@Qt_5_PRIVATE_API 5.7.1
 _ZN13QQuickToolTip11textChangedEv@Qt_5_PRIVATE_API 5.7.1
 _ZN13QQuickToolTip12delayChangedEv@Qt_5_PRIVATE_API 5.7.1
 _ZN13QQuickToolTip14timeoutChangedEv@Qt_5_PRIVATE_API 5.7.1
 _ZN13QQuickToolTip16staticMetaObjectE@Qt_5_PRIVATE_API 5.7.1
 _ZN13QQuickToolTip21qmlAttachedPropertiesEP7QObject@Qt_5_PRIVATE_API 5.7.1
 _ZN13QQuickToolTip26accessibilityActiveChangedEb@Qt_5_PRIVATE_API 5.9.0~rc
 _ZN13QQuickToolTip7setTextERK7QString@Qt_5_PRIVATE_API 5.7.1
 _ZN13QQuickToolTip8setDelayEi@Qt_5_PRIVATE_API 5.7.1
 _ZN13QQuickToolTipC1EP10QQuickItem@Qt_5_PRIVATE_API 5.7.1
 _ZN13QQuickToolTipC2EP10QQuickItem@Qt_5_PRIVATE_API 5.7.1
 _ZN13QQuickTumbler11qt_metacallEN11QMetaObject4CallEiPPv@Qt_5_PRIVATE_API 5.6.0~beta
 _ZN13QQuickTumbler11qt_metacastEPKc@Qt_5_PRIVATE_API 5.6.0~beta
 _ZN13QQuickTumbler11setDelegateEP13QQmlComponent@Qt_5_PRIVATE_API 5.6.0~beta
 _ZN13QQuickTumbler11wrapChangedEv@Qt_5_PRIVATE_API 5.9.0~rc
 _ZN13QQuickTumbler12countChangedEv@Qt_5_PRIVATE_API 5.6.0~beta
 _ZN13QQuickTumbler12modelChangedEv@Qt_5_PRIVATE_API 5.6.0~beta
 _ZN13QQuickTumbler12updatePolishEv@Qt_5_PRIVATE_API 5.9.0~rc
 _ZN13QQuickTumbler13keyPressEventEP9QKeyEvent@Qt_5_PRIVATE_API 5.6.0~beta
 _ZN13QQuickTumbler13movingChangedEv@Qt_5_PRIVATE_API 5.9.0~rc
 _ZN13QQuickTumbler15delegateChangedEv@Qt_5_PRIVATE_API 5.6.0~beta
 _ZN13QQuickTumbler15geometryChangedERK6QRectFS2_@Qt_5_PRIVATE_API 5.6.0~beta
 _ZN13QQuickTumbler15setCurrentIndexEi@Qt_5_PRIVATE_API 5.6.0~beta
 _ZN13QQuickTumbler16staticMetaObjectE@Qt_5_PRIVATE_API 5.6.0~beta
 _ZN13QQuickTumbler17componentCompleteEv@Qt_5_PRIVATE_API 5.6.0~beta
 _ZN13QQuickTumbler17contentItemChangeEP10QQuickItemS1_@Qt_5_PRIVATE_API 5.6.0~beta
 _ZN13QQuickTumbler18currentItemChangedEv@Qt_5_PRIVATE_API 5.6.0~beta
 _ZN13QQuickTumbler19currentIndexChangedEv@Qt_5_PRIVATE_API 5.6.0~beta
 _ZN13QQuickTumbler19setVisibleItemCountEi@Qt_5_PRIVATE_API 5.6.0~beta
 _ZN13QQuickTumbler21qmlAttachedPropertiesEP7QObject@Qt_5_PRIVATE_API 5.6.0~beta
 _ZN13QQuickTumbler23visibleItemCountChangedEv@Qt_5_PRIVATE_API 5.6.0~beta
 _ZN13QQuickTumbler7setWrapEb@Qt_5_PRIVATE_API 5.9.0~rc
 _ZN13QQuickTumbler8setModelERK8QVariant@Qt_5_PRIVATE_API 5.6.0~beta
 _ZN13QQuickTumbler9resetWrapEv@Qt_5_PRIVATE_API 5.9.0~rc
 _ZN13QQuickTumblerC1EP10QQuickItem@Qt_5_PRIVATE_API 5.6.0~beta
 _ZN13QQuickTumblerC2EP10QQuickItem@Qt_5_PRIVATE_API 5.6.0~beta
 _ZN13QQuickTumblerD0Ev@Qt_5_PRIVATE_API 5.6.0~beta
 _ZN13QQuickTumblerD1Ev@Qt_5_PRIVATE_API 5.6.0~beta
 _ZN13QQuickTumblerD2Ev@Qt_5_PRIVATE_API 5.6.0~beta
 _ZN14QQuickCheckBox11qt_metacallEN11QMetaObject4CallEiPPv@Qt_5_PRIVATE_API 5.6.0~beta
 _ZN14QQuickCheckBox11qt_metacastEPKc@Qt_5_PRIVATE_API 5.6.0~beta
 _ZN14QQuickCheckBox11setTristateEb@Qt_5_PRIVATE_API 5.6.0~beta
 _ZN14QQuickCheckBox12buttonChangeEN20QQuickAbstractButton12ButtonChangeE@Qt_5_PRIVATE_API 5.9.0~rc
 _ZN14QQuickCheckBox13setCheckStateEN2Qt10CheckStateE@Qt_5_PRIVATE_API 5.6.0~beta
 _ZN14QQuickCheckBox14nextCheckStateEv@Qt_5_PRIVATE_API 5.6.0~beta
 _ZN14QQuickCheckBox15tristateChangedEv@Qt_5_PRIVATE_API 5.6.0~beta
 _ZN14QQuickCheckBox16staticMetaObjectE@Qt_5_PRIVATE_API 5.6.0~beta
 _ZN14QQuickCheckBox17checkStateChangedEv@Qt_5_PRIVATE_API 5.6.0~beta
 _ZN14QQuickCheckBoxC1EP10QQuickItem@Qt_5_PRIVATE_API 5.6.0~beta
 _ZN14QQuickCheckBoxC2EP10QQuickItem@Qt_5_PRIVATE_API 5.6.0~beta
 _ZN14QQuickComboBox10setPressedEb@Qt_5_PRIVATE_API 5.6.0~beta
 _ZN14QQuickComboBox10wheelEventEP11QWheelEvent@Qt_5_PRIVATE_API 5.7.1
 _ZN14QQuickComboBox11downChangedEv@Qt_5_PRIVATE_API 5.9.0~rc
 _ZN14QQuickComboBox11eventFilterEP7QObjectP6QEvent@Qt_5_PRIVATE_API 5.9.0~rc
 _ZN14QQuickComboBox11flatChangedEv@Qt_5_PRIVATE_API 5.9.0~rc
 _ZN14QQuickComboBox11highlightedEi@Qt_5_PRIVATE_API 5.6.0~beta
 _ZN14QQuickComboBox11qt_metacallEN11QMetaObject4CallEiPPv@Qt_5_PRIVATE_API 5.6.0~beta
 _ZN14QQuickComboBox11qt_metacastEPKc@Qt_5_PRIVATE_API 5.6.0~beta
 _ZN14QQuickComboBox11setDelegateEP13QQmlComponent@Qt_5_PRIVATE_API 5.6.0~beta
 _ZN14QQuickComboBox11setEditTextERK7QString@Qt_5_PRIVATE_API 5.9.0~rc
 _ZN14QQuickComboBox11setEditableEb@Qt_5_PRIVATE_API 5.9.0~rc
 _ZN14QQuickComboBox11setTextRoleERK7QString@Qt_5_PRIVATE_API 5.6.0~beta
 _ZN14QQuickComboBox12countChangedEv@Qt_5_PRIVATE_API 5.6.0~beta
 _ZN14QQuickComboBox12focusInEventEP11QFocusEvent@Qt_5_PRIVATE_API 5.9.0~rc
 _ZN14QQuickComboBox12localeChangeERK7QLocaleS2_@Qt_5_PRIVATE_API 5.9.0~rc
 _ZN14QQuickComboBox12modelChangedEv@Qt_5_PRIVATE_API 5.6.0~beta
 _ZN14QQuickComboBox12popupChangedEv@Qt_5_PRIVATE_API 5.6.0~beta
 _ZN14QQuickComboBox12setIndicatorEP10QQuickItem@Qt_5_PRIVATE_API 5.7.1
 _ZN14QQuickComboBox12setValidatorEP10QValidator@Qt_5_PRIVATE_API 5.9.0~rc
 _ZN14QQuickComboBox13focusOutEventEP11QFocusEvent@Qt_5_PRIVATE_API 5.6.0~beta
 _ZN14QQuickComboBox13keyPressEventEP9QKeyEvent@Qt_5_PRIVATE_API 5.6.0~beta
 _ZN14QQuickComboBox13resetEditTextEv@Qt_5_PRIVATE_API 5.9.0~rc
 _ZN14QQuickComboBox14pressedChangedEv@Qt_5_PRIVATE_API 5.6.0~beta
 _ZN14QQuickComboBox14setDisplayTextERK7QString@Qt_5_PRIVATE_API 5.6.0~beta
 _ZN14QQuickComboBox15delegateChangedEv@Qt_5_PRIVATE_API 5.6.0~beta
 _ZN14QQuickComboBox15editTextChangedEv@Qt_5_PRIVATE_API 5.9.0~rc
 _ZN14QQuickComboBox15editableChangedEv@Qt_5_PRIVATE_API 5.9.0~rc
 _ZN14QQuickComboBox15keyReleaseEventEP9QKeyEvent@Qt_5_PRIVATE_API 5.6.0~beta
 _ZN14QQuickComboBox15setCurrentIndexEi@Qt_5_PRIVATE_API 5.6.0~beta
 _ZN14QQuickComboBox15textRoleChangedEv@Qt_5_PRIVATE_API 5.6.0~beta
 _ZN14QQuickComboBox16indicatorChangedEv@Qt_5_PRIVATE_API 5.7.1
 _ZN14QQuickComboBox16inputMethodEventEP17QInputMethodEvent@Qt_5_PRIVATE_API 5.9.0~rc
 _ZN14QQuickComboBox16resetDisplayTextEv@Qt_5_PRIVATE_API 5.6.0~beta
 _ZN14QQuickComboBox16staticMetaObjectE@Qt_5_PRIVATE_API 5.6.0~beta
 _ZN14QQuickComboBox16validatorChangedEv@Qt_5_PRIVATE_API 5.9.0~rc
 _ZN14QQuickComboBox17componentCompleteEv@Qt_5_PRIVATE_API 5.6.0~beta
 _ZN14QQuickComboBox17contentItemChangeEP10QQuickItemS1_@Qt_5_PRIVATE_API 5.9.0~rc
 _ZN14QQuickComboBox18currentTextChangedEv@Qt_5_PRIVATE_API 5.6.0~beta
 _ZN14QQuickComboBox18displayTextChangedEv@Qt_5_PRIVATE_API 5.6.0~beta
 _ZN14QQuickComboBox19currentIndexChangedEv@Qt_5_PRIVATE_API 5.6.0~beta
 _ZN14QQuickComboBox19setInputMethodHintsE6QFlagsIN2Qt15InputMethodHintEE@Qt_5_PRIVATE_API 5.9.0~rc
 _ZN14QQuickComboBox20delegateModelChangedEv@Qt_5_PRIVATE_API 5.6.0~beta
 _ZN14QQuickComboBox21decrementCurrentIndexEv@Qt_5_PRIVATE_API 5.7.1
 _ZN14QQuickComboBox21incrementCurrentIndexEv@Qt_5_PRIVATE_API 5.7.1
 _ZN14QQuickComboBox22acceptableInputChangedEv@Qt_5_PRIVATE_API 5.9.0~rc
 _ZN14QQuickComboBox23highlightedIndexChangedEv@Qt_5_PRIVATE_API 5.6.0~beta
 _ZN14QQuickComboBox23inputMethodHintsChangedEv@Qt_5_PRIVATE_API 5.9.0~rc
 _ZN14QQuickComboBox26accessibilityActiveChangedEb@Qt_5_PRIVATE_API 5.9.0~rc
 _ZN14QQuickComboBox27inputMethodComposingChangedEv@Qt_5_PRIVATE_API 5.9.0~rc
 _ZN14QQuickComboBox7setDownEb@Qt_5_PRIVATE_API 5.9.0~rc
 _ZN14QQuickComboBox7setFlatEb@Qt_5_PRIVATE_API 5.9.0~rc
 _ZN14QQuickComboBox8acceptedEv@Qt_5_PRIVATE_API 5.9.0~rc
 _ZN14QQuickComboBox8setModelERK8QVariant@Qt_5_PRIVATE_API 5.6.0~beta
 _ZN14QQuickComboBox8setPopupEP11QQuickPopup@Qt_5_PRIVATE_API 5.6.0~beta
 _ZN14QQuickComboBox9activatedEi@Qt_5_PRIVATE_API 5.6.0~beta
 _ZN14QQuickComboBox9resetDownEv@Qt_5_PRIVATE_API 5.9.0~rc
 _ZN14QQuickComboBox9selectAllEv@Qt_5_PRIVATE_API 5.9.0~rc
 _ZN14QQuickComboBoxC1EP10QQuickItem@Qt_5_PRIVATE_API 5.6.0~beta
 _ZN14QQuickComboBoxC2EP10QQuickItem@Qt_5_PRIVATE_API 5.6.0~beta
 _ZN14QQuickComboBoxD0Ev@Qt_5_PRIVATE_API 5.7.1
 _ZN14QQuickComboBoxD1Ev@Qt_5_PRIVATE_API 5.7.1
 _ZN14QQuickComboBoxD2Ev@Qt_5_PRIVATE_API 5.7.1
 _ZN14QQuickGroupBox11qt_metacallEN11QMetaObject4CallEiPPv@Qt_5_PRIVATE_API 5.6.0~beta
 _ZN14QQuickGroupBox11qt_metacastEPKc@Qt_5_PRIVATE_API 5.6.0~beta
 _ZN14QQuickGroupBox12labelChangedEv@Qt_5_PRIVATE_API 5.6.0~beta
 _ZN14QQuickGroupBox12titleChangedEv@Qt_5_PRIVATE_API 5.6.0~beta
 _ZN14QQuickGroupBox16staticMetaObjectE@Qt_5_PRIVATE_API 5.6.0~beta
 _ZN14QQuickGroupBox26accessibilityActiveChangedEb@Qt_5_PRIVATE_API 5.9.0~rc
 _ZN14QQuickGroupBox8setLabelEP10QQuickItem@Qt_5_PRIVATE_API 5.6.0~beta
 _ZN14QQuickGroupBox8setTitleERK7QString@Qt_5_PRIVATE_API 5.6.0~beta
 _ZN14QQuickGroupBoxC1EP10QQuickItem@Qt_5_PRIVATE_API 5.6.0~beta
 _ZN14QQuickGroupBoxC2EP10QQuickItem@Qt_5_PRIVATE_API 5.6.0~beta
 _ZN14QQuickMenuItem11qt_metacallEN11QMetaObject4CallEiPPv@Qt_5_PRIVATE_API 5.6.0~beta
 _ZN14QQuickMenuItem11qt_metacastEPKc@Qt_5_PRIVATE_API 5.6.0~beta
 _ZN14QQuickMenuItem14setHighlightedEb@Qt_5_PRIVATE_API 5.7.1
 _ZN14QQuickMenuItem16staticMetaObjectE@Qt_5_PRIVATE_API 5.6.0~beta
 _ZN14QQuickMenuItem18highlightedChangedEv@Qt_5_PRIVATE_API 5.7.1
 _ZN14QQuickMenuItem9triggeredEv@Qt_5_PRIVATE_API 5.6.0~beta
 _ZN14QQuickMenuItemC1EP10QQuickItem@Qt_5_PRIVATE_API 5.6.0~beta
 _ZN14QQuickMenuItemC2EP10QQuickItem@Qt_5_PRIVATE_API 5.6.0~beta
 _ZN14QQuickTextArea10classBeginEv@Qt_5_PRIVATE_API 5.6.0~beta
 _ZN14QQuickTextArea10itemChangeEN10QQuickItem10ItemChangeERKNS0_14ItemChangeDataE@Qt_5_PRIVATE_API 5.6.0~beta
 _ZN14QQuickTextArea10setHoveredEb@Qt_5_PRIVATE_API 5.9.0~rc
 _ZN14QQuickTextArea10timerEventEP11QTimerEvent@Qt_5_PRIVATE_API 5.6.0~beta
 _ZN14QQuickTextArea11fontChangedEv@Qt_5_PRIVATE_API 5.6.0~beta
 _ZN14QQuickTextArea11qt_metacallEN11QMetaObject4CallEiPPv@Qt_5_PRIVATE_API 5.6.0~beta
 _ZN14QQuickTextArea11qt_metacastEPKc@Qt_5_PRIVATE_API 5.6.0~beta
 _ZN14QQuickTextArea12focusInEventEP11QFocusEvent@Qt_5_PRIVATE_API 5.6.0~beta
 _ZN14QQuickTextArea12pressAndHoldEP16QQuickMouseEvent@Qt_5_PRIVATE_API 5.6.0~beta
 _ZN14QQuickTextArea13focusOutEventEP11QFocusEvent@Qt_5_PRIVATE_API 5.6.0~beta
 _ZN14QQuickTextArea13setBackgroundEP10QQuickItem@Qt_5_PRIVATE_API 5.6.0~beta
 _ZN14QQuickTextArea14hoveredChangedEv@Qt_5_PRIVATE_API 5.9.0~rc
 _ZN14QQuickTextArea14mouseMoveEventEP11QMouseEvent@Qt_5_PRIVATE_API 5.6.0~beta
 _ZN14QQuickTextArea14setFocusReasonEN2Qt11FocusReasonE@Qt_5_PRIVATE_API 5.6.0~beta
 _ZN14QQuickTextArea15geometryChangedERK6QRectFS2_@Qt_5_PRIVATE_API 5.6.0~beta
 _ZN14QQuickTextArea15hoverEnterEventEP11QHoverEvent@Qt_5_PRIVATE_API 5.9.0~rc
 _ZN14QQuickTextArea15hoverLeaveEventEP11QHoverEvent@Qt_5_PRIVATE_API 5.9.0~rc
 _ZN14QQuickTextArea15mousePressEventEP11QMouseEvent@Qt_5_PRIVATE_API 5.6.0~beta
 _ZN14QQuickTextArea15setHoverEnabledEb@Qt_5_PRIVATE_API 5.9.0~rc
 _ZN14QQuickTextArea15updatePaintNodeEP7QSGNodePN10QQuickItem19UpdatePaintNodeDataE@Qt_5_PRIVATE_API 5.6.0~beta
 _ZN14QQuickTextArea16staticMetaObjectE@Qt_5_PRIVATE_API 5.6.0~beta
 _ZN14QQuickTextArea17backgroundChangedEv@Qt_5_PRIVATE_API 5.6.0~beta
 _ZN14QQuickTextArea17componentCompleteEv@Qt_5_PRIVATE_API 5.7.1
 _ZN14QQuickTextArea17mouseReleaseEventEP11QMouseEvent@Qt_5_PRIVATE_API 5.6.0~beta
 _ZN14QQuickTextArea17resetHoverEnabledEv@Qt_5_PRIVATE_API 5.9.0~rc
 _ZN14QQuickTextArea18focusReasonChangedEv@Qt_5_PRIVATE_API 5.6.0~beta
 _ZN14QQuickTextArea18setPlaceholderTextERK7QString@Qt_5_PRIVATE_API 5.6.0~beta
 _ZN14QQuickTextArea19hoverEnabledChangedEv@Qt_5_PRIVATE_API 5.9.0~rc
 _ZN14QQuickTextArea21implicitWidthChanged3Ev@Qt_5_PRIVATE_API 5.7.1
 _ZN14QQuickTextArea21mouseDoubleClickEventEP11QMouseEvent@Qt_5_PRIVATE_API 5.7.1
 _ZN14QQuickTextArea21qmlAttachedPropertiesEP7QObject@Qt_5_PRIVATE_API 5.7.1
 _ZN14QQuickTextArea22implicitHeightChanged3Ev@Qt_5_PRIVATE_API 5.7.1
 _ZN14QQuickTextArea22placeholderTextChangedEv@Qt_5_PRIVATE_API 5.6.0~beta
 _ZN14QQuickTextArea7pressedEP16QQuickMouseEvent@Qt_5_PRIVATE_API 5.9.0~rc
 _ZN14QQuickTextArea7setFontERK5QFont@Qt_5_PRIVATE_API 5.6.0~beta
 _ZN14QQuickTextArea8releasedEP16QQuickMouseEvent@Qt_5_PRIVATE_API 5.9.0~rc
 _ZN14QQuickTextAreaC1EP10QQuickItem@Qt_5_PRIVATE_API 5.6.0~beta
 _ZN14QQuickTextAreaC2EP10QQuickItem@Qt_5_PRIVATE_API 5.6.0~beta
 _ZN15QQuickContainer10insertItemEiP10QQuickItem@Qt_5_PRIVATE_API 5.6.0~beta
 _ZN15QQuickContainer10itemChangeEN10QQuickItem10ItemChangeERKNS0_14ItemChangeDataE@Qt_5_PRIVATE_API 5.6.0~beta
 _ZN15QQuickContainer10removeItemEi@Qt_5_PRIVATE_API 5.6.0~beta
 _ZN15QQuickContainer11contentDataEv@Qt_5_PRIVATE_API 5.6.0~beta
 _ZN15QQuickContainer11itemRemovedEiP10QQuickItem@Qt_5_PRIVATE_API 5.6.0~beta
 _ZN15QQuickContainer11qt_metacallEN11QMetaObject4CallEiPPv@Qt_5_PRIVATE_API 5.6.0~beta
 _ZN15QQuickContainer11qt_metacastEPKc@Qt_5_PRIVATE_API 5.6.0~beta
 _ZN15QQuickContainer12countChangedEv@Qt_5_PRIVATE_API 5.6.0~beta
 _ZN15QQuickContainer15contentChildrenEv@Qt_5_PRIVATE_API 5.6.0~beta
 _ZN15QQuickContainer15setCurrentIndexEi@Qt_5_PRIVATE_API 5.6.0~beta
 _ZN15QQuickContainer16staticMetaObjectE@Qt_5_PRIVATE_API 5.6.0~beta
 _ZN15QQuickContainer17contentItemChangeEP10QQuickItemS1_@Qt_5_PRIVATE_API 5.6.0~beta
 _ZN15QQuickContainer18currentItemChangedEv@Qt_5_PRIVATE_API 5.6.0~beta
 _ZN15QQuickContainer19currentIndexChangedEv@Qt_5_PRIVATE_API 5.6.0~beta
 _ZN15QQuickContainer21decrementCurrentIndexEv@Qt_5_PRIVATE_API 5.9.0~rc
 _ZN15QQuickContainer21incrementCurrentIndexEv@Qt_5_PRIVATE_API 5.9.0~rc
 _ZN15QQuickContainer22contentChildrenChangedEv@Qt_5_PRIVATE_API 5.6.0~beta
 _ZN15QQuickContainer7addItemEP10QQuickItem@Qt_5_PRIVATE_API 5.6.0~beta
 _ZN15QQuickContainer8moveItemEii@Qt_5_PRIVATE_API 5.6.0~beta
 _ZN15QQuickContainer9itemAddedEiP10QQuickItem@Qt_5_PRIVATE_API 5.6.0~beta
 _ZN15QQuickContainerC1EP10QQuickItem@Qt_5_PRIVATE_API 5.6.0~beta
 _ZN15QQuickContainerC1ER22QQuickContainerPrivateP10QQuickItem@Qt_5_PRIVATE_API 5.6.0~beta
 _ZN15QQuickContainerC2EP10QQuickItem@Qt_5_PRIVATE_API 5.6.0~beta
 _ZN15QQuickContainerC2ER22QQuickContainerPrivateP10QQuickItem@Qt_5_PRIVATE_API 5.6.0~beta
 _ZN15QQuickContainerD0Ev@Qt_5_PRIVATE_API 5.6.0~beta
 _ZN15QQuickContainerD1Ev@Qt_5_PRIVATE_API 5.6.0~beta
 _ZN15QQuickContainerD2Ev@Qt_5_PRIVATE_API 5.6.0~beta
 _ZN15QQuickScrollBar10setPressedEb@Qt_5_PRIVATE_API 5.6.0~beta
 _ZN15QQuickScrollBar11hoverChangeEv@Qt_5_PRIVATE_API 5.9.0~rc
 _ZN15QQuickScrollBar11qt_metacallEN11QMetaObject4CallEiPPv@Qt_5_PRIVATE_API 5.6.0~beta
 _ZN15QQuickScrollBar11qt_metacastEPKc@Qt_5_PRIVATE_API 5.6.0~beta
 _ZN15QQuickScrollBar11setPositionEd@Qt_5_PRIVATE_API 5.6.0~beta
 _ZN15QQuickScrollBar11setSnapModeENS_8SnapModeE@Qt_5_PRIVATE_API 5.9.0~rc
 _ZN15QQuickScrollBar11setStepSizeEd@Qt_5_PRIVATE_API 5.7.1
 _ZN15QQuickScrollBar11sizeChangedEv@Qt_5_PRIVATE_API 5.6.0~beta
 _ZN15QQuickScrollBar13activeChangedEv@Qt_5_PRIVATE_API 5.6.0~beta
 _ZN15QQuickScrollBar13policyChangedEv@Qt_5_PRIVATE_API 5.9.0~rc
 _ZN15QQuickScrollBar14pressedChangedEv@Qt_5_PRIVATE_API 5.6.0~beta
 _ZN15QQuickScrollBar14setInteractiveEb@Qt_5_PRIVATE_API 5.9.0~rc
 _ZN15QQuickScrollBar14setOrientationEN2Qt11OrientationE@Qt_5_PRIVATE_API 5.6.0~beta
 _ZN15QQuickScrollBar15mousePressEventEP11QMouseEvent@Qt_5_PRIVATE_API 5.6.0~beta
 _ZN15QQuickScrollBar15positionChangedEv@Qt_5_PRIVATE_API 5.6.0~beta
 _ZN15QQuickScrollBar15snapModeChangedEv@Qt_5_PRIVATE_API 5.9.0~rc
 _ZN15QQuickScrollBar15stepSizeChangedEv@Qt_5_PRIVATE_API 5.7.1
 _ZN15QQuickScrollBar16resetInteractiveEv@Qt_5_PRIVATE_API 5.9.0~rc
 _ZN15QQuickScrollBar16staticMetaObjectE@Qt_5_PRIVATE_API 5.6.0~beta
 _ZN15QQuickScrollBar18interactiveChangedEv@Qt_5_PRIVATE_API 5.9.0~rc
 _ZN15QQuickScrollBar18orientationChangedEv@Qt_5_PRIVATE_API 5.6.0~beta
 _ZN15QQuickScrollBar21qmlAttachedPropertiesEP7QObject@Qt_5_PRIVATE_API 5.6.0~beta
 _ZN15QQuickScrollBar26accessibilityActiveChangedEb@Qt_5_PRIVATE_API 5.6.0~beta
 _ZN15QQuickScrollBar7setSizeEd@Qt_5_PRIVATE_API 5.6.0~beta
 _ZN15QQuickScrollBar8decreaseEv@Qt_5_PRIVATE_API 5.7.1
 _ZN15QQuickScrollBar8increaseEv@Qt_5_PRIVATE_API 5.7.1
 _ZN15QQuickScrollBar9setActiveEb@Qt_5_PRIVATE_API 5.6.0~beta
 _ZN15QQuickScrollBar9setPolicyENS_6PolicyE@Qt_5_PRIVATE_API 5.9.0~rc
 _ZN15QQuickScrollBarC1EP10QQuickItem@Qt_5_PRIVATE_API 5.6.0~beta
 _ZN15QQuickScrollBarC2EP10QQuickItem@Qt_5_PRIVATE_API 5.6.0~beta
 _ZN15QQuickStackView10setPopExitEP16QQuickTransition@Qt_5_PRIVATE_API 5.6.0~beta
 _ZN15QQuickStackView11busyChangedEv@Qt_5_PRIVATE_API 5.6.0~beta
 _ZN15QQuickStackView11qt_metacallEN11QMetaObject4CallEiPPv@Qt_5_PRIVATE_API 5.6.0~beta
 _ZN15QQuickStackView11qt_metacastEPKc@Qt_5_PRIVATE_API 5.6.0~beta
 _ZN15QQuickStackView11setPopEnterEP16QQuickTransition@Qt_5_PRIVATE_API 5.6.0~beta
 _ZN15QQuickStackView11setPushExitEP16QQuickTransition@Qt_5_PRIVATE_API 5.6.0~beta
 _ZN15QQuickStackView12depthChangedEv@Qt_5_PRIVATE_API 5.6.0~beta
 _ZN15QQuickStackView12setPushEnterEP16QQuickTransition@Qt_5_PRIVATE_API 5.6.0~beta
 _ZN15QQuickStackView14popExitChangedEv@Qt_5_PRIVATE_API 5.6.0~beta
 _ZN15QQuickStackView14setInitialItemERK8QVariant@Qt_5_PRIVATE_API 5.6.0~beta
 _ZN15QQuickStackView14setReplaceExitEP16QQuickTransition@Qt_5_PRIVATE_API 5.6.0~beta
 _ZN15QQuickStackView15geometryChangedERK6QRectFS2_@Qt_5_PRIVATE_API 5.6.0~beta
 _ZN15QQuickStackView15popEnterChangedEv@Qt_5_PRIVATE_API 5.6.0~beta
 _ZN15QQuickStackView15pushExitChangedEv@Qt_5_PRIVATE_API 5.6.0~beta
 _ZN15QQuickStackView15setReplaceEnterEP16QQuickTransition@Qt_5_PRIVATE_API 5.6.0~beta
 _ZN15QQuickStackView16pushEnterChangedEv@Qt_5_PRIVATE_API 5.6.0~beta
 _ZN15QQuickStackView16staticMetaObjectE@Qt_5_PRIVATE_API 5.6.0~beta
 _ZN15QQuickStackView17componentCompleteEv@Qt_5_PRIVATE_API 5.6.0~beta
 _ZN15QQuickStackView18currentItemChangedEv@Qt_5_PRIVATE_API 5.6.0~beta
 _ZN15QQuickStackView18replaceExitChangedEv@Qt_5_PRIVATE_API 5.6.0~beta
 _ZN15QQuickStackView19replaceEnterChangedEv@Qt_5_PRIVATE_API 5.6.0~beta
 _ZN15QQuickStackView21childMouseEventFilterEP10QQuickItemP6QEvent@Qt_5_PRIVATE_API 5.6.0~beta
 _ZN15QQuickStackView21qmlAttachedPropertiesEP7QObject@Qt_5_PRIVATE_API 5.6.0~beta
 _ZN15QQuickStackView3getEiNS_12LoadBehaviorE@Qt_5_PRIVATE_API 5.6.0~beta
 _ZN15QQuickStackView3popEP14QQmlV4Function@Qt_5_PRIVATE_API 5.6.0~beta
 _ZN15QQuickStackView4findERK8QJSValueNS_12LoadBehaviorE@Qt_5_PRIVATE_API 5.6.0~beta
 _ZN15QQuickStackView4pushEP14QQmlV4Function@Qt_5_PRIVATE_API 5.6.0~beta
 _ZN15QQuickStackView5clearEv@Qt_5_PRIVATE_API 5.6.0~beta
 _ZN15QQuickStackView7replaceEP14QQmlV4Function@Qt_5_PRIVATE_API 5.6.0~beta
 _ZN15QQuickStackViewC1EP10QQuickItem@Qt_5_PRIVATE_API 5.6.0~beta
 _ZN15QQuickStackViewC2EP10QQuickItem@Qt_5_PRIVATE_API 5.6.0~beta
 _ZN15QQuickStackViewD0Ev@Qt_5_PRIVATE_API 5.6.0~beta
 _ZN15QQuickStackViewD1Ev@Qt_5_PRIVATE_API 5.6.0~beta
 _ZN15QQuickStackViewD2Ev@Qt_5_PRIVATE_API 5.6.0~beta
 _ZN15QQuickSwipeView11qt_metacallEN11QMetaObject4CallEiPPv@Qt_5_PRIVATE_API 5.6.0~beta
 _ZN15QQuickSwipeView11qt_metacastEPKc@Qt_5_PRIVATE_API 5.6.0~beta
 _ZN15QQuickSwipeView14setInteractiveEb@Qt_5_PRIVATE_API 5.9.0~rc
 _ZN15QQuickSwipeView14setOrientationEN2Qt11OrientationE@Qt_5_PRIVATE_API 5.9.0~rc
 _ZN15QQuickSwipeView15geometryChangedERK6QRectFS2_@Qt_5_PRIVATE_API 5.6.0~beta
 _ZN15QQuickSwipeView16staticMetaObjectE@Qt_5_PRIVATE_API 5.6.0~beta
 _ZN15QQuickSwipeView18interactiveChangedEv@Qt_5_PRIVATE_API 5.9.0~rc
 _ZN15QQuickSwipeView18orientationChangedEv@Qt_5_PRIVATE_API 5.9.0~rc
 _ZN15QQuickSwipeView21qmlAttachedPropertiesEP7QObject@Qt_5_PRIVATE_API 5.6.0~beta
 _ZN15QQuickSwipeView9itemAddedEiP10QQuickItem@Qt_5_PRIVATE_API 5.6.0~beta
 _ZN15QQuickSwipeViewC1EP10QQuickItem@Qt_5_PRIVATE_API 5.6.0~beta
 _ZN15QQuickSwipeViewC2EP10QQuickItem@Qt_5_PRIVATE_API 5.6.0~beta
 _ZN15QQuickTabButton11qt_metacallEN11QMetaObject4CallEiPPv@Qt_5_PRIVATE_API 5.6.0~beta
 _ZN15QQuickTabButton11qt_metacastEPKc@Qt_5_PRIVATE_API 5.6.0~beta
 _ZN15QQuickTabButton16staticMetaObjectE@Qt_5_PRIVATE_API 5.6.0~beta
 _ZN15QQuickTabButtonC1EP10QQuickItem@Qt_5_PRIVATE_API 5.6.0~beta
 _ZN15QQuickTabButtonC2EP10QQuickItem@Qt_5_PRIVATE_API 5.6.0~beta
 _ZN15QQuickTextField10classBeginEv@Qt_5_PRIVATE_API 5.6.0~beta
 _ZN15QQuickTextField10itemChangeEN10QQuickItem10ItemChangeERKNS0_14ItemChangeDataE@Qt_5_PRIVATE_API 5.6.0~beta
 _ZN15QQuickTextField10setHoveredEb@Qt_5_PRIVATE_API 5.9.0~rc
 _ZN15QQuickTextField10timerEventEP11QTimerEvent@Qt_5_PRIVATE_API 5.6.0~beta
 _ZN15QQuickTextField11fontChangedEv@Qt_5_PRIVATE_API 5.6.0~beta
 _ZN15QQuickTextField11qt_metacallEN11QMetaObject4CallEiPPv@Qt_5_PRIVATE_API 5.6.0~beta
 _ZN15QQuickTextField11qt_metacastEPKc@Qt_5_PRIVATE_API 5.6.0~beta
 _ZN15QQuickTextField12focusInEventEP11QFocusEvent@Qt_5_PRIVATE_API 5.6.0~beta
 _ZN15QQuickTextField12pressAndHoldEP16QQuickMouseEvent@Qt_5_PRIVATE_API 5.6.0~beta
 _ZN15QQuickTextField13focusOutEventEP11QFocusEvent@Qt_5_PRIVATE_API 5.6.0~beta
 _ZN15QQuickTextField13setBackgroundEP10QQuickItem@Qt_5_PRIVATE_API 5.6.0~beta
 _ZN15QQuickTextField14hoveredChangedEv@Qt_5_PRIVATE_API 5.9.0~rc
 _ZN15QQuickTextField14mouseMoveEventEP11QMouseEvent@Qt_5_PRIVATE_API 5.6.0~beta
 _ZN15QQuickTextField14setFocusReasonEN2Qt11FocusReasonE@Qt_5_PRIVATE_API 5.6.0~beta
 _ZN15QQuickTextField15geometryChangedERK6QRectFS2_@Qt_5_PRIVATE_API 5.6.0~beta
 _ZN15QQuickTextField15hoverEnterEventEP11QHoverEvent@Qt_5_PRIVATE_API 5.9.0~rc
 _ZN15QQuickTextField15hoverLeaveEventEP11QHoverEvent@Qt_5_PRIVATE_API 5.9.0~rc
 _ZN15QQuickTextField15mousePressEventEP11QMouseEvent@Qt_5_PRIVATE_API 5.6.0~beta
 _ZN15QQuickTextField15setHoverEnabledEb@Qt_5_PRIVATE_API 5.9.0~rc
 _ZN15QQuickTextField15updatePaintNodeEP7QSGNodePN10QQuickItem19UpdatePaintNodeDataE@Qt_5_PRIVATE_API 5.6.0~beta
 _ZN15QQuickTextField16staticMetaObjectE@Qt_5_PRIVATE_API 5.6.0~beta
 _ZN15QQuickTextField17backgroundChangedEv@Qt_5_PRIVATE_API 5.6.0~beta
 _ZN15QQuickTextField17componentCompleteEv@Qt_5_PRIVATE_API 5.7.1
 _ZN15QQuickTextField17mouseReleaseEventEP11QMouseEvent@Qt_5_PRIVATE_API 5.6.0~beta
 _ZN15QQuickTextField17resetHoverEnabledEv@Qt_5_PRIVATE_API 5.9.0~rc
 _ZN15QQuickTextField18focusReasonChangedEv@Qt_5_PRIVATE_API 5.6.0~beta
 _ZN15QQuickTextField18setPlaceholderTextERK7QString@Qt_5_PRIVATE_API 5.6.0~beta
 _ZN15QQuickTextField19hoverEnabledChangedEv@Qt_5_PRIVATE_API 5.9.0~rc
 _ZN15QQuickTextField21implicitWidthChanged3Ev@Qt_5_PRIVATE_API 5.7.1
 _ZN15QQuickTextField21mouseDoubleClickEventEP11QMouseEvent@Qt_5_PRIVATE_API 5.7.1
 _ZN15QQuickTextField22implicitHeightChanged3Ev@Qt_5_PRIVATE_API 5.7.1
 _ZN15QQuickTextField22placeholderTextChangedEv@Qt_5_PRIVATE_API 5.6.0~beta
 _ZN15QQuickTextField7pressedEP16QQuickMouseEvent@Qt_5_PRIVATE_API 5.9.0~rc
 _ZN15QQuickTextField7setFontERK5QFont@Qt_5_PRIVATE_API 5.6.0~beta
 _ZN15QQuickTextField8releasedEP16QQuickMouseEvent@Qt_5_PRIVATE_API 5.9.0~rc
 _ZN15QQuickTextFieldC1EP10QQuickItem@Qt_5_PRIVATE_API 5.6.0~beta
 _ZN15QQuickTextFieldC2EP10QQuickItem@Qt_5_PRIVATE_API 5.6.0~beta
 _ZN16QQuickScrollView11contentDataEv@Qt_5_PRIVATE_API 5.9.0~rc
 _ZN16QQuickScrollView11eventFilterEP7QObjectP6QEvent@Qt_5_PRIVATE_API 5.9.0~rc
 _ZN16QQuickScrollView11qt_metacallEN11QMetaObject4CallEiPPv@Qt_5_PRIVATE_API 5.9.0~rc
 _ZN16QQuickScrollView11qt_metacastEPKc@Qt_5_PRIVATE_API 5.9.0~rc
 _ZN16QQuickScrollView13keyPressEventEP9QKeyEvent@Qt_5_PRIVATE_API 5.9.0~rc
 _ZN16QQuickScrollView15contentChildrenEv@Qt_5_PRIVATE_API 5.9.0~rc
 _ZN16QQuickScrollView15setContentWidthEd@Qt_5_PRIVATE_API 5.9.0~rc
 _ZN16QQuickScrollView16setContentHeightEd@Qt_5_PRIVATE_API 5.9.0~rc
 _ZN16QQuickScrollView16staticMetaObjectE@Qt_5_PRIVATE_API 5.9.0~rc
 _ZN16QQuickScrollView17componentCompleteEv@Qt_5_PRIVATE_API 5.9.0~rc
 _ZN16QQuickScrollView17contentItemChangeEP10QQuickItemS1_@Qt_5_PRIVATE_API 5.9.0~rc
 _ZN16QQuickScrollView19contentWidthChangedEv@Qt_5_PRIVATE_API 5.9.0~rc
 _ZN16QQuickScrollView20contentHeightChangedEv@Qt_5_PRIVATE_API 5.9.0~rc
 _ZN16QQuickScrollView21childMouseEventFilterEP10QQuickItemP6QEvent@Qt_5_PRIVATE_API 5.9.0~rc
 _ZN16QQuickScrollView22contentChildrenChangedEv@Qt_5_PRIVATE_API 5.9.0~rc
 _ZN16QQuickScrollViewC1EP10QQuickItem@Qt_5_PRIVATE_API 5.9.0~rc
 _ZN16QQuickScrollViewC2EP10QQuickItem@Qt_5_PRIVATE_API 5.9.0~rc
 _ZN16QQuickSpinButton10setHoveredEb@Qt_5_PRIVATE_API 5.9.0~rc
 _ZN16QQuickSpinButton10setPressedEb@Qt_5_PRIVATE_API 5.6.0~beta
 _ZN16QQuickSpinButton11qt_metacallEN11QMetaObject4CallEiPPv@Qt_5_PRIVATE_API 5.6.0~beta
 _ZN16QQuickSpinButton11qt_metacastEPKc@Qt_5_PRIVATE_API 5.6.0~beta
 _ZN16QQuickSpinButton12setIndicatorEP10QQuickItem@Qt_5_PRIVATE_API 5.6.0~beta
 _ZN16QQuickSpinButton14hoveredChangedEv@Qt_5_PRIVATE_API 5.9.0~rc
 _ZN16QQuickSpinButton14pressedChangedEv@Qt_5_PRIVATE_API 5.6.0~beta
 _ZN16QQuickSpinButton16indicatorChangedEv@Qt_5_PRIVATE_API 5.6.0~beta
 _ZN16QQuickSpinButton16staticMetaObjectE@Qt_5_PRIVATE_API 5.6.0~beta
 _ZN16QQuickSpinButtonC1EP13QQuickSpinBox@Qt_5_PRIVATE_API 5.6.0~beta
 _ZN16QQuickSpinButtonC2EP13QQuickSpinBox@Qt_5_PRIVATE_API 5.6.0~beta
 _ZN16QQuickToolButton11qt_metacallEN11QMetaObject4CallEiPPv@Qt_5_PRIVATE_API 5.6.0~beta
 _ZN16QQuickToolButton11qt_metacastEPKc@Qt_5_PRIVATE_API 5.6.0~beta
 _ZN16QQuickToolButton16staticMetaObjectE@Qt_5_PRIVATE_API 5.6.0~beta
 _ZN16QQuickToolButtonC1EP10QQuickItem@Qt_5_PRIVATE_API 5.6.0~beta
 _ZN16QQuickToolButtonC2EP10QQuickItem@Qt_5_PRIVATE_API 5.6.0~beta
 _ZN17QQuickButtonGroup11qt_metacallEN11QMetaObject4CallEiPPv@Qt_5_PRIVATE_API 5.6.0~beta
 _ZN17QQuickButtonGroup11qt_metacastEPKc@Qt_5_PRIVATE_API 5.6.0~beta
 _ZN17QQuickButtonGroup12removeButtonEP20QQuickAbstractButton@Qt_5_PRIVATE_API 5.6.0~beta
 _ZN17QQuickButtonGroup14buttonsChangedEv@Qt_5_PRIVATE_API 5.6.0~beta
 _ZN17QQuickButtonGroup16setCheckedButtonEP20QQuickAbstractButton@Qt_5_PRIVATE_API 5.6.0~beta
 _ZN17QQuickButtonGroup16staticMetaObjectE@Qt_5_PRIVATE_API 5.6.0~beta
 _ZN17QQuickButtonGroup20checkedButtonChangedEv@Qt_5_PRIVATE_API 5.6.0~beta
 _ZN17QQuickButtonGroup21qmlAttachedPropertiesEP7QObject@Qt_5_PRIVATE_API 5.6.0~beta
 _ZN17QQuickButtonGroup7buttonsEv@Qt_5_PRIVATE_API 5.6.0~beta
 _ZN17QQuickButtonGroup7clickedEP20QQuickAbstractButton@Qt_5_PRIVATE_API 5.9.0~rc
 _ZN17QQuickButtonGroup9addButtonEP20QQuickAbstractButton@Qt_5_PRIVATE_API 5.6.0~beta
 _ZN17QQuickButtonGroupC1EP7QObject@Qt_5_PRIVATE_API 5.6.0~beta
 _ZN17QQuickButtonGroupC2EP7QObject@Qt_5_PRIVATE_API 5.6.0~beta
 _ZN17QQuickButtonGroupD0Ev@Qt_5_PRIVATE_API 5.6.0~beta
 _ZN17QQuickButtonGroupD1Ev@Qt_5_PRIVATE_API 5.6.0~beta
 _ZN17QQuickButtonGroupD2Ev@Qt_5_PRIVATE_API 5.6.0~beta
 _ZN17QQuickDelayButton11qt_metacallEN11QMetaObject4CallEiPPv@Qt_5_PRIVATE_API 5.9.0~rc
 _ZN17QQuickDelayButton11qt_metacastEPKc@Qt_5_PRIVATE_API 5.9.0~rc
 _ZN17QQuickDelayButton11setProgressEd@Qt_5_PRIVATE_API 5.9.0~rc
 _ZN17QQuickDelayButton12buttonChangeEN20QQuickAbstractButton12ButtonChangeE@Qt_5_PRIVATE_API 5.9.0~rc
 _ZN17QQuickDelayButton12delayChangedEv@Qt_5_PRIVATE_API 5.9.0~rc
 _ZN17QQuickDelayButton13setTransitionEP16QQuickTransition@Qt_5_PRIVATE_API 5.9.0~rc
 _ZN17QQuickDelayButton14nextCheckStateEv@Qt_5_PRIVATE_API 5.9.0~rc
 _ZN17QQuickDelayButton15progressChangedEv@Qt_5_PRIVATE_API 5.9.0~rc
 _ZN17QQuickDelayButton16staticMetaObjectE@Qt_5_PRIVATE_API 5.9.0~rc
 _ZN17QQuickDelayButton17transitionChangedEv@Qt_5_PRIVATE_API 5.9.0~rc
 _ZN17QQuickDelayButton8setDelayEi@Qt_5_PRIVATE_API 5.9.0~rc
 _ZN17QQuickDelayButton9activatedEv@Qt_5_PRIVATE_API 5.9.0~rc
 _ZN17QQuickDelayButtonC1EP10QQuickItem@Qt_5_PRIVATE_API 5.9.0~rc
 _ZN17QQuickDelayButtonC2EP10QQuickItem@Qt_5_PRIVATE_API 5.9.0~rc
 _ZN17QQuickMenuPrivate10insertItemEiP10QQuickItem@Qt_5_PRIVATE_API 5.6.0~beta
 _ZN17QQuickMenuPrivate10removeItemEiP10QQuickItem@Qt_5_PRIVATE_API 5.6.0~beta
 _ZN17QQuickMenuPrivate10resizeItemEP10QQuickItem@Qt_5_PRIVATE_API 5.7.1
 _ZN17QQuickMenuPrivate11resizeItemsEv@Qt_5_PRIVATE_API 5.7.1
 _ZN17QQuickMenuPrivate13itemDestroyedEP10QQuickItem@Qt_5_PRIVATE_API 5.6.0~beta
 _ZN17QQuickMenuPrivate13onItemPressedEv@Qt_5_PRIVATE_API 5.6.0~beta
 _ZN17QQuickMenuPrivate14contentData_atEP16QQmlListPropertyI7QObjectEi@Qt_5_PRIVATE_API 5.6.0~beta
 _ZN17QQuickMenuPrivate14itemChildAddedEP10QQuickItemS1_@Qt_5_PRIVATE_API 5.6.0~beta
 _ZN17QQuickMenuPrivate15setCurrentIndexEi@Qt_5_PRIVATE_API 5.7.1
 _ZN17QQuickMenuPrivate16activateNextItemEv@Qt_5_PRIVATE_API 5.9.1
 _ZN17QQuickMenuPrivate17contentData_clearEP16QQmlListPropertyI7QObjectE@Qt_5_PRIVATE_API 5.6.0~beta
 _ZN17QQuickMenuPrivate17contentData_countEP16QQmlListPropertyI7QObjectE@Qt_5_PRIVATE_API 5.6.0~beta
 _ZN17QQuickMenuPrivate17itemParentChangedEP10QQuickItemS1_@Qt_5_PRIVATE_API 5.6.0~beta
 _ZN17QQuickMenuPrivate18contentData_appendEP16QQmlListPropertyI7QObjectEPS1_@Qt_5_PRIVATE_API 5.6.0~beta
 _ZN17QQuickMenuPrivate19itemGeometryChangedEP10QQuickItem20QQuickGeometryChangeRK6QRectF@Qt_5_PRIVATE_API 5.9.0~rc
 _ZN17QQuickMenuPrivate20activatePreviousItemEv@Qt_5_PRIVATE_API 5.9.1
 _ZN17QQuickMenuPrivate23itemSiblingOrderChangedEP10QQuickItem@Qt_5_PRIVATE_API 5.6.0~beta
 _ZN17QQuickMenuPrivate24onItemActiveFocusChangedEv@Qt_5_PRIVATE_API 5.6.0~beta
 _ZN17QQuickMenuPrivate8moveItemEii@Qt_5_PRIVATE_API 5.6.0~beta
 _ZN17QQuickMenuPrivateC1Ev@Qt_5_PRIVATE_API 5.6.0~beta
 _ZN17QQuickMenuPrivateC2Ev@Qt_5_PRIVATE_API 5.6.0~beta
 _ZN17QQuickPanePrivate14getContentItemEv@Qt_5_PRIVATE_API 5.9.0~rc
 _ZN17QQuickPanePrivateC1Ev@Qt_5_PRIVATE_API 5.6.0~beta
 _ZN17QQuickPanePrivateC2Ev@Qt_5_PRIVATE_API 5.6.0~beta
 _ZN17QQuickProgressBar11fromChangedEv@Qt_5_PRIVATE_API 5.6.0~beta
 _ZN17QQuickProgressBar11qt_metacallEN11QMetaObject4CallEiPPv@Qt_5_PRIVATE_API 5.6.0~beta
 _ZN17QQuickProgressBar11qt_metacastEPKc@Qt_5_PRIVATE_API 5.6.0~beta
 _ZN17QQuickProgressBar12mirrorChangeEv@Qt_5_PRIVATE_API 5.6.0~beta
 _ZN17QQuickProgressBar12valueChangedEv@Qt_5_PRIVATE_API 5.6.0~beta
 _ZN17QQuickProgressBar15positionChangedEv@Qt_5_PRIVATE_API 5.6.0~beta
 _ZN17QQuickProgressBar16setIndeterminateEb@Qt_5_PRIVATE_API 5.6.0~beta
 _ZN17QQuickProgressBar16staticMetaObjectE@Qt_5_PRIVATE_API 5.6.0~beta
 _ZN17QQuickProgressBar17componentCompleteEv@Qt_5_PRIVATE_API 5.6.0~beta
 _ZN17QQuickProgressBar20indeterminateChangedEv@Qt_5_PRIVATE_API 5.6.0~beta
 _ZN17QQuickProgressBar21visualPositionChangedEv@Qt_5_PRIVATE_API 5.6.0~beta
 _ZN17QQuickProgressBar5setToEd@Qt_5_PRIVATE_API 5.6.0~beta
 _ZN17QQuickProgressBar7setFromEd@Qt_5_PRIVATE_API 5.6.0~beta
 _ZN17QQuickProgressBar8setValueEd@Qt_5_PRIVATE_API 5.6.0~beta
 _ZN17QQuickProgressBar9toChangedEv@Qt_5_PRIVATE_API 5.6.0~beta
 _ZN17QQuickProgressBarC1EP10QQuickItem@Qt_5_PRIVATE_API 5.6.0~beta
 _ZN17QQuickProgressBarC2EP10QQuickItem@Qt_5_PRIVATE_API 5.6.0~beta
 _ZN17QQuickRadioButton11qt_metacallEN11QMetaObject4CallEiPPv@Qt_5_PRIVATE_API 5.6.0~beta
 _ZN17QQuickRadioButton11qt_metacastEPKc@Qt_5_PRIVATE_API 5.6.0~beta
 _ZN17QQuickRadioButton16staticMetaObjectE@Qt_5_PRIVATE_API 5.6.0~beta
 _ZN17QQuickRadioButtonC1EP10QQuickItem@Qt_5_PRIVATE_API 5.6.0~beta
 _ZN17QQuickRadioButtonC2EP10QQuickItem@Qt_5_PRIVATE_API 5.6.0~beta
 _ZN17QQuickRangeSlider10touchEventEP11QTouchEvent@Qt_5_PRIVATE_API 5.9.0~rc
 _ZN17QQuickRangeSlider11fromChangedEv@Qt_5_PRIVATE_API 5.6.0~beta
 _ZN17QQuickRangeSlider11liveChangedEv@Qt_5_PRIVATE_API 5.9.0~rc
 _ZN17QQuickRangeSlider11qt_metacallEN11QMetaObject4CallEiPPv@Qt_5_PRIVATE_API 5.6.0~beta
 _ZN17QQuickRangeSlider11qt_metacastEPKc@Qt_5_PRIVATE_API 5.6.0~beta
 _ZN17QQuickRangeSlider11setSnapModeENS_8SnapModeE@Qt_5_PRIVATE_API 5.6.0~beta
 _ZN17QQuickRangeSlider11setStepSizeEd@Qt_5_PRIVATE_API 5.6.0~beta
 _ZN17QQuickRangeSlider12focusInEventEP11QFocusEvent@Qt_5_PRIVATE_API 5.7.1
 _ZN17QQuickRangeSlider12mirrorChangeEv@Qt_5_PRIVATE_API 5.6.0~beta
 _ZN17QQuickRangeSlider13keyPressEventEP9QKeyEvent@Qt_5_PRIVATE_API 5.6.0~beta
 _ZN17QQuickRangeSlider14hoverMoveEventEP11QHoverEvent@Qt_5_PRIVATE_API 5.9.0~rc
 _ZN17QQuickRangeSlider14mouseMoveEventEP11QMouseEvent@Qt_5_PRIVATE_API 5.6.0~beta
 _ZN17QQuickRangeSlider14setOrientationEN2Qt11OrientationE@Qt_5_PRIVATE_API 5.6.0~beta
 _ZN17QQuickRangeSlider15hoverEnterEventEP11QHoverEvent@Qt_5_PRIVATE_API 5.9.0~rc
 _ZN17QQuickRangeSlider15hoverLeaveEventEP11QHoverEvent@Qt_5_PRIVATE_API 5.9.0~rc
 _ZN17QQuickRangeSlider15keyReleaseEventEP9QKeyEvent@Qt_5_PRIVATE_API 5.6.0~beta
 _ZN17QQuickRangeSlider15mousePressEventEP11QMouseEvent@Qt_5_PRIVATE_API 5.6.0~beta
 _ZN17QQuickRangeSlider15snapModeChangedEv@Qt_5_PRIVATE_API 5.6.0~beta
 _ZN17QQuickRangeSlider15stepSizeChangedEv@Qt_5_PRIVATE_API 5.6.0~beta
 _ZN17QQuickRangeSlider16staticMetaObjectE@Qt_5_PRIVATE_API 5.6.0~beta
 _ZN17QQuickRangeSlider17componentCompleteEv@Qt_5_PRIVATE_API 5.6.0~beta
 _ZN17QQuickRangeSlider18orientationChangedEv@Qt_5_PRIVATE_API 5.6.0~beta
 _ZN17QQuickRangeSlider5setToEd@Qt_5_PRIVATE_API 5.6.0~beta
 _ZN17QQuickRangeSlider7setFromEd@Qt_5_PRIVATE_API 5.6.0~beta
 _ZN17QQuickRangeSlider7setLiveEb@Qt_5_PRIVATE_API 5.9.0~rc
 _ZN17QQuickRangeSlider9setValuesEdd@Qt_5_PRIVATE_API 5.6.0~beta
 _ZN17QQuickRangeSlider9toChangedEv@Qt_5_PRIVATE_API 5.6.0~beta
 _ZN17QQuickRangeSliderC1EP10QQuickItem@Qt_5_PRIVATE_API 5.6.0~beta
 _ZN17QQuickRangeSliderC2EP10QQuickItem@Qt_5_PRIVATE_API 5.6.0~beta
 _ZN17QQuickRoundButton11qt_metacallEN11QMetaObject4CallEiPPv@Qt_5_PRIVATE_API 5.9.0~rc
 _ZN17QQuickRoundButton11qt_metacastEPKc@Qt_5_PRIVATE_API 5.9.0~rc
 _ZN17QQuickRoundButton11resetRadiusEv@Qt_5_PRIVATE_API 5.9.0~rc
 _ZN17QQuickRoundButton13radiusChangedEv@Qt_5_PRIVATE_API 5.9.0~rc
 _ZN17QQuickRoundButton15geometryChangedERK6QRectFS2_@Qt_5_PRIVATE_API 5.9.0~rc
 _ZN17QQuickRoundButton16staticMetaObjectE@Qt_5_PRIVATE_API 5.9.0~rc
 _ZN17QQuickRoundButton9setRadiusEd@Qt_5_PRIVATE_API 5.9.0~rc
 _ZN17QQuickRoundButtonC1EP10QQuickItem@Qt_5_PRIVATE_API 5.9.0~rc
 _ZN17QQuickRoundButtonC2EP10QQuickItem@Qt_5_PRIVATE_API 5.9.0~rc
 _ZN18QQuickItemDelegate11qt_metacallEN11QMetaObject4CallEiPPv@Qt_5_PRIVATE_API 5.6.0~beta
 _ZN18QQuickItemDelegate11qt_metacastEPKc@Qt_5_PRIVATE_API 5.6.0~beta
 _ZN18QQuickItemDelegate14setHighlightedEb@Qt_5_PRIVATE_API 5.7.1
 _ZN18QQuickItemDelegate16staticMetaObjectE@Qt_5_PRIVATE_API 5.6.0~beta
 _ZN18QQuickItemDelegate18highlightedChangedEv@Qt_5_PRIVATE_API 5.7.1
 _ZN18QQuickItemDelegateC1EP10QQuickItem@Qt_5_PRIVATE_API 5.6.0~beta
 _ZN18QQuickItemDelegateC1ER25QQuickItemDelegatePrivateP10QQuickItem@Qt_5_PRIVATE_API 5.7.1
 _ZN18QQuickItemDelegateC2EP10QQuickItem@Qt_5_PRIVATE_API 5.6.0~beta
 _ZN18QQuickItemDelegateC2ER25QQuickItemDelegatePrivateP10QQuickItem@Qt_5_PRIVATE_API 5.7.1
 _ZN19QQuickBusyIndicator10setRunningEb@Qt_5_PRIVATE_API 5.6.0~beta
 _ZN19QQuickBusyIndicator11qt_metacallEN11QMetaObject4CallEiPPv@Qt_5_PRIVATE_API 5.6.0~beta
 _ZN19QQuickBusyIndicator11qt_metacastEPKc@Qt_5_PRIVATE_API 5.6.0~beta
 _ZN19QQuickBusyIndicator14runningChangedEv@Qt_5_PRIVATE_API 5.6.0~beta
 _ZN19QQuickBusyIndicator16staticMetaObjectE@Qt_5_PRIVATE_API 5.6.0~beta
 _ZN19QQuickBusyIndicatorC1EP10QQuickItem@Qt_5_PRIVATE_API 5.6.0~beta
 _ZN19QQuickBusyIndicatorC2EP10QQuickItem@Qt_5_PRIVATE_API 5.6.0~beta
 _ZN19QQuickCheckDelegate11qt_metacallEN11QMetaObject4CallEiPPv@Qt_5_PRIVATE_API 5.7.1
 _ZN19QQuickCheckDelegate11qt_metacastEPKc@Qt_5_PRIVATE_API 5.7.1
 _ZN19QQuickCheckDelegate11setTristateEb@Qt_5_PRIVATE_API 5.7.1
 _ZN19QQuickCheckDelegate12buttonChangeEN20QQuickAbstractButton12ButtonChangeE@Qt_5_PRIVATE_API 5.9.0~rc
 _ZN19QQuickCheckDelegate13setCheckStateEN2Qt10CheckStateE@Qt_5_PRIVATE_API 5.7.1
 _ZN19QQuickCheckDelegate14nextCheckStateEv@Qt_5_PRIVATE_API 5.7.1
 _ZN19QQuickCheckDelegate15tristateChangedEv@Qt_5_PRIVATE_API 5.7.1
 _ZN19QQuickCheckDelegate16staticMetaObjectE@Qt_5_PRIVATE_API 5.7.1
 _ZN19QQuickCheckDelegate17checkStateChangedEv@Qt_5_PRIVATE_API 5.7.1
 _ZN19QQuickCheckDelegateC1EP10QQuickItem@Qt_5_PRIVATE_API 5.7.1
 _ZN19QQuickCheckDelegateC2EP10QQuickItem@Qt_5_PRIVATE_API 5.7.1
 _ZN19QQuickMenuSeparator11qt_metacallEN11QMetaObject4CallEiPPv@Qt_5_PRIVATE_API 5.9.0~rc
 _ZN19QQuickMenuSeparator11qt_metacastEPKc@Qt_5_PRIVATE_API 5.9.0~rc
 _ZN19QQuickMenuSeparator16staticMetaObjectE@Qt_5_PRIVATE_API 5.9.0~rc
 _ZN19QQuickMenuSeparatorC1EP10QQuickItem@Qt_5_PRIVATE_API 5.9.0~rc
 _ZN19QQuickMenuSeparatorC2EP10QQuickItem@Qt_5_PRIVATE_API 5.9.0~rc
 _ZN19QQuickPageIndicator11qt_metacallEN11QMetaObject4CallEiPPv@Qt_5_PRIVATE_API 5.6.0~beta
 _ZN19QQuickPageIndicator11qt_metacastEPKc@Qt_5_PRIVATE_API 5.6.0~beta
 _ZN19QQuickPageIndicator11setDelegateEP13QQmlComponent@Qt_5_PRIVATE_API 5.6.0~beta
 _ZN19QQuickPageIndicator12countChangedEv@Qt_5_PRIVATE_API 5.6.0~beta
 _ZN19QQuickPageIndicator14mouseMoveEventEP11QMouseEvent@Qt_5_PRIVATE_API 5.6.0~beta
 _ZN19QQuickPageIndicator14setInteractiveEb@Qt_5_PRIVATE_API 5.6.0~beta
 _ZN19QQuickPageIndicator15delegateChangedEv@Qt_5_PRIVATE_API 5.6.0~beta
 _ZN19QQuickPageIndicator15mousePressEventEP11QMouseEvent@Qt_5_PRIVATE_API 5.6.0~beta
 _ZN19QQuickPageIndicator15setCurrentIndexEi@Qt_5_PRIVATE_API 5.6.0~beta
 _ZN19QQuickPageIndicator16mouseUngrabEventEv@Qt_5_PRIVATE_API 5.6.0~beta
 _ZN19QQuickPageIndicator16staticMetaObjectE@Qt_5_PRIVATE_API 5.6.0~beta
 _ZN19QQuickPageIndicator17contentItemChangeEP10QQuickItemS1_@Qt_5_PRIVATE_API 5.6.0~beta
 _ZN19QQuickPageIndicator17mouseReleaseEventEP11QMouseEvent@Qt_5_PRIVATE_API 5.6.0~beta
 _ZN19QQuickPageIndicator18interactiveChangedEv@Qt_5_PRIVATE_API 5.6.0~beta
 _ZN19QQuickPageIndicator19currentIndexChangedEv@Qt_5_PRIVATE_API 5.6.0~beta
 _ZN19QQuickPageIndicator8setCountEi@Qt_5_PRIVATE_API 5.6.0~beta
 _ZN19QQuickPageIndicatorC1EP10QQuickItem@Qt_5_PRIVATE_API 5.6.0~beta
 _ZN19QQuickPageIndicatorC2EP10QQuickItem@Qt_5_PRIVATE_API 5.6.0~beta
 _ZN19QQuickRadioDelegate11qt_metacallEN11QMetaObject4CallEiPPv@Qt_5_PRIVATE_API 5.7.1
 _ZN19QQuickRadioDelegate11qt_metacastEPKc@Qt_5_PRIVATE_API 5.7.1
 _ZN19QQuickRadioDelegate16staticMetaObjectE@Qt_5_PRIVATE_API 5.7.1
 _ZN19QQuickRadioDelegateC1EP10QQuickItem@Qt_5_PRIVATE_API 5.7.1
 _ZN19QQuickRadioDelegateC2EP10QQuickItem@Qt_5_PRIVATE_API 5.7.1
 _ZN19QQuickSwipeDelegate10touchEventEP11QTouchEvent@Qt_5_PRIVATE_API 5.9.0~rc
 _ZN19QQuickSwipeDelegate11qt_metacallEN11QMetaObject4CallEiPPv@Qt_5_PRIVATE_API 5.7.1
 _ZN19QQuickSwipeDelegate11qt_metacastEPKc@Qt_5_PRIVATE_API 5.7.1
 _ZN19QQuickSwipeDelegate14mouseMoveEventEP11QMouseEvent@Qt_5_PRIVATE_API 5.7.1
 _ZN19QQuickSwipeDelegate15geometryChangedERK6QRectFS2_@Qt_5_PRIVATE_API 5.7.1
 _ZN19QQuickSwipeDelegate15mousePressEventEP11QMouseEvent@Qt_5_PRIVATE_API 5.7.1
 _ZN19QQuickSwipeDelegate16staticMetaObjectE@Qt_5_PRIVATE_API 5.7.1
 _ZN19QQuickSwipeDelegate17mouseReleaseEventEP11QMouseEvent@Qt_5_PRIVATE_API 5.7.1
 _ZN19QQuickSwipeDelegate21childMouseEventFilterEP10QQuickItemP6QEvent@Qt_5_PRIVATE_API 5.7.1
 _ZN19QQuickSwipeDelegate21qmlAttachedPropertiesEP7QObject@Qt_5_PRIVATE_API 5.9.0~rc
 _ZN19QQuickSwipeDelegateC1EP10QQuickItem@Qt_5_PRIVATE_API 5.7.1
 _ZN19QQuickSwipeDelegateC2EP10QQuickItem@Qt_5_PRIVATE_API 5.7.1
 _ZN19QQuickToolSeparator11qt_metacallEN11QMetaObject4CallEiPPv@Qt_5_PRIVATE_API 5.9.0~rc
 _ZN19QQuickToolSeparator11qt_metacastEPKc@Qt_5_PRIVATE_API 5.9.0~rc
 _ZN19QQuickToolSeparator14setOrientationEN2Qt11OrientationE@Qt_5_PRIVATE_API 5.9.0~rc
 _ZN19QQuickToolSeparator16staticMetaObjectE@Qt_5_PRIVATE_API 5.9.0~rc
 _ZN19QQuickToolSeparator18orientationChangedEv@Qt_5_PRIVATE_API 5.9.0~rc
 _ZN19QQuickToolSeparatorC1EP10QQuickItem@Qt_5_PRIVATE_API 5.9.0~rc
 _ZN19QQuickToolSeparatorC2EP10QQuickItem@Qt_5_PRIVATE_API 5.9.0~rc
 _ZN20QQuickAbstractButton10setCheckedEb@Qt_5_PRIVATE_API 5.6.0~beta
 _ZN20QQuickAbstractButton10setPressedEb@Qt_5_PRIVATE_API 5.6.0~beta
 _ZN20QQuickAbstractButton10timerEventEP11QTimerEvent@Qt_5_PRIVATE_API 5.6.0~beta
 _ZN20QQuickAbstractButton11downChangedEv@Qt_5_PRIVATE_API 5.7.1
 _ZN20QQuickAbstractButton11qt_metacallEN11QMetaObject4CallEiPPv@Qt_5_PRIVATE_API 5.6.0~beta
 _ZN20QQuickAbstractButton11qt_metacastEPKc@Qt_5_PRIVATE_API 5.6.0~beta
 _ZN20QQuickAbstractButton11textChangedEv@Qt_5_PRIVATE_API 5.6.0~beta
 _ZN20QQuickAbstractButton12buttonChangeENS_12ButtonChangeE@Qt_5_PRIVATE_API 5.9.0~rc
 _ZN20QQuickAbstractButton12pressAndHoldEv@Qt_5_PRIVATE_API 5.7.1
 _ZN20QQuickAbstractButton12setCheckableEb@Qt_5_PRIVATE_API 5.6.0~beta
 _ZN20QQuickAbstractButton12setIndicatorEP10QQuickItem@Qt_5_PRIVATE_API 5.6.0~beta
 _ZN20QQuickAbstractButton13doubleClickedEv@Qt_5_PRIVATE_API 5.7.1
 _ZN20QQuickAbstractButton13focusOutEventEP11QFocusEvent@Qt_5_PRIVATE_API 5.6.0~beta
 _ZN20QQuickAbstractButton13keyPressEventEP9QKeyEvent@Qt_5_PRIVATE_API 5.6.0~beta
 _ZN20QQuickAbstractButton13setAutoRepeatEb@Qt_5_PRIVATE_API 5.6.0~beta
 _ZN20QQuickAbstractButton14checkedChangedEv@Qt_5_PRIVATE_API 5.6.0~beta
 _ZN20QQuickAbstractButton14nextCheckStateEv@Qt_5_PRIVATE_API 5.6.0~beta
 _ZN20QQuickAbstractButton14pressedChangedEv@Qt_5_PRIVATE_API 5.6.0~beta
 _ZN20QQuickAbstractButton15keyReleaseEventEP9QKeyEvent@Qt_5_PRIVATE_API 5.6.0~beta
 _ZN20QQuickAbstractButton15mousePressEventEP11QMouseEvent@Qt_5_PRIVATE_API 5.6.0~beta
 _ZN20QQuickAbstractButton16checkableChangedEv@Qt_5_PRIVATE_API 5.9.0~rc
 _ZN20QQuickAbstractButton16indicatorChangedEv@Qt_5_PRIVATE_API 5.6.0~beta
 _ZN20QQuickAbstractButton16setAutoExclusiveEb@Qt_5_PRIVATE_API 5.6.0~beta
 _ZN20QQuickAbstractButton16staticMetaObjectE@Qt_5_PRIVATE_API 5.6.0~beta
 _ZN20QQuickAbstractButton20autoExclusiveChangedEv@Qt_5_PRIVATE_API 5.6.0~beta
 _ZN20QQuickAbstractButton21mouseDoubleClickEventEP11QMouseEvent@Qt_5_PRIVATE_API 5.6.0~beta
 _ZN20QQuickAbstractButton26accessibilityActiveChangedEb@Qt_5_PRIVATE_API 5.6.0~beta
 _ZN20QQuickAbstractButton6toggleEv@Qt_5_PRIVATE_API 5.6.0~beta
 _ZN20QQuickAbstractButton7clickedEv@Qt_5_PRIVATE_API 5.7.1
 _ZN20QQuickAbstractButton7pressedEv@Qt_5_PRIVATE_API 5.7.1
 _ZN20QQuickAbstractButton7setDownEb@Qt_5_PRIVATE_API 5.7.1
 _ZN20QQuickAbstractButton7setTextERK7QString@Qt_5_PRIVATE_API 5.6.0~beta
 _ZN20QQuickAbstractButton7toggledEv@Qt_5_PRIVATE_API 5.9.0~rc
 _ZN20QQuickAbstractButton8canceledEv@Qt_5_PRIVATE_API 5.6.0~beta
 _ZN20QQuickAbstractButton8releasedEv@Qt_5_PRIVATE_API 5.7.1
 _ZN20QQuickAbstractButton9resetDownEv@Qt_5_PRIVATE_API 5.7.1
 _ZN20QQuickAbstractButtonC1EP10QQuickItem@Qt_5_PRIVATE_API 5.6.0~beta
 _ZN20QQuickAbstractButtonC1ER27QQuickAbstractButtonPrivateP10QQuickItem@Qt_5_PRIVATE_API 5.6.0~beta
 _ZN20QQuickAbstractButtonC2EP10QQuickItem@Qt_5_PRIVATE_API 5.6.0~beta
 _ZN20QQuickAbstractButtonC2ER27QQuickAbstractButtonPrivateP10QQuickItem@Qt_5_PRIVATE_API 5.6.0~beta
 _ZN20QQuickAbstractButtonD0Ev@Qt_5_PRIVATE_API 5.6.0~beta
 _ZN20QQuickAbstractButtonD1Ev@Qt_5_PRIVATE_API 5.6.0~beta
 _ZN20QQuickAbstractButtonD2Ev@Qt_5_PRIVATE_API 5.6.0~beta
 _ZN20QQuickControlPrivate10calcLocaleEPK10QQuickItem@Qt_5_PRIVATE_API 5.7.1
 _ZN20QQuickControlPrivate10handleMoveERK7QPointF@Qt_5_PRIVATE_API 5.9.0~rc
 _ZN20QQuickControlPrivate10parentFontEPK10QQuickItem@Qt_5_PRIVATE_API 5.7.1
 _ZN20QQuickControlPrivate10updateFontERK5QFont@Qt_5_PRIVATE_API 5.6.0~beta
 _ZN20QQuickControlPrivate11acceptTouchERKN11QTouchEvent10TouchPointE@Qt_5_PRIVATE_API 5.9.0~rc
 _ZN20QQuickControlPrivate11handlePressERK7QPointF@Qt_5_PRIVATE_API 5.9.0~rc
 _ZN20QQuickControlPrivate11inheritFontERK5QFont@Qt_5_PRIVATE_API 5.7.1
 _ZN20QQuickControlPrivate11resolveFontEv@Qt_5_PRIVATE_API 5.6.0~beta
 _ZN20QQuickControlPrivate12handleUngrabEv@Qt_5_PRIVATE_API 5.9.0~rc
 _ZN20QQuickControlPrivate12mirrorChangeEv@Qt_5_PRIVATE_API 5.6.0~beta
 _ZN20QQuickControlPrivate12updateLocaleERK7QLocaleb@Qt_5_PRIVATE_API 5.7.1
 _ZN20QQuickControlPrivate13handleReleaseERK7QPointF@Qt_5_PRIVATE_API 5.9.0~rc
 _ZN20QQuickControlPrivate13resizeContentEv@Qt_5_PRIVATE_API 5.6.0~beta
 _ZN20QQuickControlPrivate13setTopPaddingEdb@Qt_5_PRIVATE_API 5.6.0~beta
 _ZN20QQuickControlPrivate14getContentItemEv@Qt_5_PRIVATE_API 5.9.0~rc
 _ZN20QQuickControlPrivate14setLeftPaddingEdb@Qt_5_PRIVATE_API 5.6.0~beta
 _ZN20QQuickControlPrivate15destroyDelegateEP7QObjectS1_@Qt_5_PRIVATE_API 5.9.0~rc
 _ZN20QQuickControlPrivate15setRightPaddingEdb@Qt_5_PRIVATE_API 5.6.0~beta
 _ZN20QQuickControlPrivate15updateFontRecurEP10QQuickItemRK5QFont@Qt_5_PRIVATE_API 5.6.0~beta
 _ZN20QQuickControlPrivate16calcHoverEnabledEPK10QQuickItem@Qt_5_PRIVATE_API 5.9.0~rc
 _ZN20QQuickControlPrivate16resizeBackgroundEv@Qt_5_PRIVATE_API 5.6.0~beta
 _ZN20QQuickControlPrivate16setBottomPaddingEdb@Qt_5_PRIVATE_API 5.6.0~beta
 _ZN20QQuickControlPrivate17updateLocaleRecurEP10QQuickItemRK7QLocale@Qt_5_PRIVATE_API 5.7.1
 _ZN20QQuickControlPrivate18updateHoverEnabledEbb@Qt_5_PRIVATE_API 5.9.0~rc
 _ZN20QQuickControlPrivate21setContentItem_helperEP10QQuickItemb@Qt_5_PRIVATE_API 5.9.1
 _ZN20QQuickControlPrivate23updateHoverEnabledRecurEP10QQuickItemb@Qt_5_PRIVATE_API 5.9.0~rc
 _ZN20QQuickControlPrivate26accessibilityActiveChangedEb@Qt_5_PRIVATE_API 5.6.0~beta
 _ZN20QQuickControlPrivate9ExtraDataC1Ev@Qt_5_PRIVATE_API 5.7.1
 _ZN20QQuickControlPrivate9ExtraDataC2Ev@Qt_5_PRIVATE_API 5.7.1
 _ZN20QQuickControlPrivate9themeFontEN14QPlatformTheme4FontE@Qt_5_PRIVATE_API 5.6.0~beta
 _ZN20QQuickControlPrivateC1Ev@Qt_5_PRIVATE_API 5.6.0~beta
 _ZN20QQuickControlPrivateC2Ev@Qt_5_PRIVATE_API 5.6.0~beta
 _ZN20QQuickControlPrivateD0Ev@Qt_5_PRIVATE_API 5.6.0~beta
 _ZN20QQuickControlPrivateD1Ev@Qt_5_PRIVATE_API 5.6.0~beta
 _ZN20QQuickControlPrivateD2Ev@Qt_5_PRIVATE_API 5.6.0~beta
 _ZN20QQuickSwitchDelegate10touchEventEP11QTouchEvent@Qt_5_PRIVATE_API 5.9.0~rc
 _ZN20QQuickSwitchDelegate11qt_metacallEN11QMetaObject4CallEiPPv@Qt_5_PRIVATE_API 5.7.1
 _ZN20QQuickSwitchDelegate11qt_metacastEPKc@Qt_5_PRIVATE_API 5.7.1
 _ZN20QQuickSwitchDelegate11setPositionEd@Qt_5_PRIVATE_API 5.7.1
 _ZN20QQuickSwitchDelegate12buttonChangeEN20QQuickAbstractButton12ButtonChangeE@Qt_5_PRIVATE_API 5.9.0~rc
 _ZN20QQuickSwitchDelegate12mirrorChangeEv@Qt_5_PRIVATE_API 5.7.1
 _ZN20QQuickSwitchDelegate14mouseMoveEventEP11QMouseEvent@Qt_5_PRIVATE_API 5.7.1
 _ZN20QQuickSwitchDelegate14nextCheckStateEv@Qt_5_PRIVATE_API 5.7.1
 _ZN20QQuickSwitchDelegate15positionChangedEv@Qt_5_PRIVATE_API 5.7.1
 _ZN20QQuickSwitchDelegate16staticMetaObjectE@Qt_5_PRIVATE_API 5.7.1
 _ZN20QQuickSwitchDelegate21visualPositionChangedEv@Qt_5_PRIVATE_API 5.7.1
 _ZN20QQuickSwitchDelegateC1EP10QQuickItem@Qt_5_PRIVATE_API 5.7.1
 _ZN20QQuickSwitchDelegateC2EP10QQuickItem@Qt_5_PRIVATE_API 5.7.1
 _ZN20QQuickTumblerPrivate10unlockWrapEv@Qt_5_PRIVATE_API 5.9.0~rc
 _ZN20QQuickTumblerPrivate13resetViewDataEv@Qt_5_PRIVATE_API 5.9.0~rc
 _ZN20QQuickTumblerPrivate13setupViewDataEP10QQuickItem@Qt_5_PRIVATE_API 5.9.0~rc
 _ZN20QQuickTumblerPrivate14itemChildAddedEP10QQuickItemS1_@Qt_5_PRIVATE_API 5.9.0~rc
 _ZN20QQuickTumblerPrivate16itemChildRemovedEP10QQuickItemS1_@Qt_5_PRIVATE_API 5.9.0~rc
 _ZN20QQuickTumblerPrivate16syncCurrentIndexEv@Qt_5_PRIVATE_API 5.9.0~rc
 _ZN20QQuickTumblerPrivate17determineViewTypeEP10QQuickItem@Qt_5_PRIVATE_API 5.9.0~rc
 _ZN20QQuickTumblerPrivate18disconnectFromViewEv@Qt_5_PRIVATE_API 5.9.0~rc
 _ZN20QQuickTumblerPrivate19_q_updateItemWidthsEv@Qt_5_PRIVATE_API 5.9.0~rc
 _ZN20QQuickTumblerPrivate19setWrapBasedOnCountEv@Qt_5_PRIVATE_API 5.9.0~rc
 _ZN20QQuickTumblerPrivate20_q_updateItemHeightsEv@Qt_5_PRIVATE_API 5.9.0~rc
 _ZN20QQuickTumblerPrivate21_q_onViewCountChangedEv@Qt_5_PRIVATE_API 5.9.0~rc
 _ZN20QQuickTumblerPrivate28_q_onViewCurrentIndexChangedEv@Qt_5_PRIVATE_API 5.9.0~rc
 _ZN20QQuickTumblerPrivate3getEP13QQuickTumbler@Qt_5_PRIVATE_API 5.9.0~rc
 _ZN20QQuickTumblerPrivate7setWrapEbb@Qt_5_PRIVATE_API 5.9.0~rc
 _ZN20QQuickTumblerPrivate8lockWrapEv@Qt_5_PRIVATE_API 5.9.0~rc
 _ZN20QQuickTumblerPrivate8setCountEi@Qt_5_PRIVATE_API 5.9.0~rc
 _ZN20QQuickTumblerPrivateC1Ev@Qt_5_PRIVATE_API 5.9.0~rc
 _ZN20QQuickTumblerPrivateC2Ev@Qt_5_PRIVATE_API 5.9.0~rc
 _ZN20QQuickTumblerPrivateD0Ev@Qt_5_PRIVATE_API 5.9.0~rc
 _ZN20QQuickTumblerPrivateD1Ev@Qt_5_PRIVATE_API 5.9.0~rc
 _ZN20QQuickTumblerPrivateD2Ev@Qt_5_PRIVATE_API 5.9.0~rc
 _ZN21QQuickDialogButtonBox11itemRemovedEiP10QQuickItem@Qt_5_PRIVATE_API 5.9.0~rc
 _ZN21QQuickDialogButtonBox11qt_metacallEN11QMetaObject4CallEiPPv@Qt_5_PRIVATE_API 5.9.0~rc
 _ZN21QQuickDialogButtonBox11qt_metacastEPKc@Qt_5_PRIVATE_API 5.9.0~rc
 _ZN21QQuickDialogButtonBox11setDelegateEP13QQmlComponent@Qt_5_PRIVATE_API 5.9.0~rc
 _ZN21QQuickDialogButtonBox11setPositionENS_8PositionE@Qt_5_PRIVATE_API 5.9.0~rc
 _ZN21QQuickDialogButtonBox12setAlignmentE6QFlagsIN2Qt13AlignmentFlagEE@Qt_5_PRIVATE_API 5.9.0~rc
 _ZN21QQuickDialogButtonBox12updatePolishEv@Qt_5_PRIVATE_API 5.9.0~rc
 _ZN21QQuickDialogButtonBox13helpRequestedEv@Qt_5_PRIVATE_API 5.9.0~rc
 _ZN21QQuickDialogButtonBox14resetAlignmentEv@Qt_5_PRIVATE_API 5.9.0~rc
 _ZN21QQuickDialogButtonBox15delegateChangedEv@Qt_5_PRIVATE_API 5.9.0~rc
 _ZN21QQuickDialogButtonBox15geometryChangedERK6QRectFS2_@Qt_5_PRIVATE_API 5.9.0~rc
 _ZN21QQuickDialogButtonBox15positionChangedEv@Qt_5_PRIVATE_API 5.9.0~rc
 _ZN21QQuickDialogButtonBox16alignmentChangedEv@Qt_5_PRIVATE_API 5.9.0~rc
 _ZN21QQuickDialogButtonBox16staticMetaObjectE@Qt_5_PRIVATE_API 5.9.0~rc
 _ZN21QQuickDialogButtonBox17componentCompleteEv@Qt_5_PRIVATE_API 5.9.0~rc
 _ZN21QQuickDialogButtonBox17contentItemChangeEP10QQuickItemS1_@Qt_5_PRIVATE_API 5.9.0~rc
 _ZN21QQuickDialogButtonBox18setStandardButtonsE6QFlagsIN21QPlatformDialogHelper14StandardButtonEE@Qt_5_PRIVATE_API 5.9.0~rc
 _ZN21QQuickDialogButtonBox21qmlAttachedPropertiesEP7QObject@Qt_5_PRIVATE_API 5.9.0~rc
 _ZN21QQuickDialogButtonBox22standardButtonsChangedEv@Qt_5_PRIVATE_API 5.9.0~rc
 _ZN21QQuickDialogButtonBox7clickedEP20QQuickAbstractButton@Qt_5_PRIVATE_API 5.9.0~rc
 _ZN21QQuickDialogButtonBox8acceptedEv@Qt_5_PRIVATE_API 5.9.0~rc
 _ZN21QQuickDialogButtonBox8rejectedEv@Qt_5_PRIVATE_API 5.9.0~rc
 _ZN21QQuickDialogButtonBox9itemAddedEiP10QQuickItem@Qt_5_PRIVATE_API 5.9.0~rc
 _ZN21QQuickDialogButtonBoxC1EP10QQuickItem@Qt_5_PRIVATE_API 5.9.0~rc
 _ZN21QQuickDialogButtonBoxC2EP10QQuickItem@Qt_5_PRIVATE_API 5.9.0~rc
 _ZN21QQuickDialogButtonBoxD0Ev@Qt_5_PRIVATE_API 5.9.0~rc
 _ZN21QQuickDialogButtonBoxD1Ev@Qt_5_PRIVATE_API 5.9.0~rc
 _ZN21QQuickDialogButtonBoxD2Ev@Qt_5_PRIVATE_API 5.9.0~rc
 _ZN21QQuickRangeSliderNode10setHoveredEb@Qt_5_PRIVATE_API 5.9.0~rc
 _ZN21QQuickRangeSliderNode10setPressedEb@Qt_5_PRIVATE_API 5.6.0~beta
 _ZN21QQuickRangeSliderNode11qt_metacallEN11QMetaObject4CallEiPPv@Qt_5_PRIVATE_API 5.6.0~beta
 _ZN21QQuickRangeSliderNode11qt_metacastEPKc@Qt_5_PRIVATE_API 5.6.0~beta
 _ZN21QQuickRangeSliderNode12valueChangedEv@Qt_5_PRIVATE_API 5.6.0~beta
 _ZN21QQuickRangeSliderNode13handleChangedEv@Qt_5_PRIVATE_API 5.6.0~beta
 _ZN21QQuickRangeSliderNode14hoveredChangedEv@Qt_5_PRIVATE_API 5.9.0~rc
 _ZN21QQuickRangeSliderNode14pressedChangedEv@Qt_5_PRIVATE_API 5.6.0~beta
 _ZN21QQuickRangeSliderNode15positionChangedEv@Qt_5_PRIVATE_API 5.6.0~beta
 _ZN21QQuickRangeSliderNode16staticMetaObjectE@Qt_5_PRIVATE_API 5.6.0~beta
 _ZN21QQuickRangeSliderNode21visualPositionChangedEv@Qt_5_PRIVATE_API 5.6.0~beta
 _ZN21QQuickRangeSliderNode8decreaseEv@Qt_5_PRIVATE_API 5.6.0~beta
 _ZN21QQuickRangeSliderNode8increaseEv@Qt_5_PRIVATE_API 5.6.0~beta
 _ZN21QQuickRangeSliderNode8setValueEd@Qt_5_PRIVATE_API 5.6.0~beta
 _ZN21QQuickRangeSliderNode9setHandleEP10QQuickItem@Qt_5_PRIVATE_API 5.6.0~beta
 _ZN21QQuickRangeSliderNodeC1EdP17QQuickRangeSlider@Qt_5_PRIVATE_API 5.6.0~beta
 _ZN21QQuickRangeSliderNodeC2EdP17QQuickRangeSlider@Qt_5_PRIVATE_API 5.6.0~beta
 _ZN21QQuickRangeSliderNodeD0Ev@Qt_5_PRIVATE_API 5.6.0~beta
 _ZN21QQuickRangeSliderNodeD1Ev@Qt_5_PRIVATE_API 5.6.0~beta
 _ZN21QQuickRangeSliderNodeD2Ev@Qt_5_PRIVATE_API 5.6.0~beta
 _ZN21QQuickScrollIndicator11qt_metacallEN11QMetaObject4CallEiPPv@Qt_5_PRIVATE_API 5.6.0~beta
 _ZN21QQuickScrollIndicator11qt_metacastEPKc@Qt_5_PRIVATE_API 5.6.0~beta
 _ZN21QQuickScrollIndicator11setPositionEd@Qt_5_PRIVATE_API 5.6.0~beta
 _ZN21QQuickScrollIndicator11sizeChangedEv@Qt_5_PRIVATE_API 5.6.0~beta
 _ZN21QQuickScrollIndicator13activeChangedEv@Qt_5_PRIVATE_API 5.6.0~beta
 _ZN21QQuickScrollIndicator14setOrientationEN2Qt11OrientationE@Qt_5_PRIVATE_API 5.6.0~beta
 _ZN21QQuickScrollIndicator15positionChangedEv@Qt_5_PRIVATE_API 5.6.0~beta
 _ZN21QQuickScrollIndicator16staticMetaObjectE@Qt_5_PRIVATE_API 5.6.0~beta
 _ZN21QQuickScrollIndicator18orientationChangedEv@Qt_5_PRIVATE_API 5.6.0~beta
 _ZN21QQuickScrollIndicator21qmlAttachedPropertiesEP7QObject@Qt_5_PRIVATE_API 5.6.0~beta
 _ZN21QQuickScrollIndicator7setSizeEd@Qt_5_PRIVATE_API 5.6.0~beta
 _ZN21QQuickScrollIndicator9setActiveEb@Qt_5_PRIVATE_API 5.6.0~beta
 _ZN21QQuickScrollIndicatorC1EP10QQuickItem@Qt_5_PRIVATE_API 5.6.0~beta
 _ZN21QQuickScrollIndicatorC2EP10QQuickItem@Qt_5_PRIVATE_API 5.6.0~beta
 _ZN21QQuickShortcutContext7matcherEP7QObjectN2Qt15ShortcutContextE@Qt_5_PRIVATE_API 5.9.0~rc
 _ZN21QQuickToolTipAttached10setTimeoutEi@Qt_5_PRIVATE_API 5.7.1
 _ZN21QQuickToolTipAttached10setVisibleEb@Qt_5_PRIVATE_API 5.7.1
 _ZN21QQuickToolTipAttached11qt_metacallEN11QMetaObject4CallEiPPv@Qt_5_PRIVATE_API 5.7.1
 _ZN21QQuickToolTipAttached11qt_metacastEPKc@Qt_5_PRIVATE_API 5.7.1
 _ZN21QQuickToolTipAttached11textChangedEv@Qt_5_PRIVATE_API 5.7.1
 _ZN21QQuickToolTipAttached12delayChangedEv@Qt_5_PRIVATE_API 5.7.1
 _ZN21QQuickToolTipAttached14timeoutChangedEv@Qt_5_PRIVATE_API 5.7.1
 _ZN21QQuickToolTipAttached14visibleChangedEv@Qt_5_PRIVATE_API 5.7.1
 _ZN21QQuickToolTipAttached16staticMetaObjectE@Qt_5_PRIVATE_API 5.7.1
 _ZN21QQuickToolTipAttached4hideEv@Qt_5_PRIVATE_API 5.7.1
 _ZN21QQuickToolTipAttached4showERK7QStringi@Qt_5_PRIVATE_API 5.7.1
 _ZN21QQuickToolTipAttached7setTextERK7QString@Qt_5_PRIVATE_API 5.7.1
 _ZN21QQuickToolTipAttached8setDelayEi@Qt_5_PRIVATE_API 5.7.1
 _ZN21QQuickToolTipAttachedC1EP7QObject@Qt_5_PRIVATE_API 5.7.1
 _ZN21QQuickToolTipAttachedC2EP7QObject@Qt_5_PRIVATE_API 5.7.1
 _ZN21QQuickTumblerAttached11qt_metacallEN11QMetaObject4CallEiPPv@Qt_5_PRIVATE_API 5.6.0~beta
 _ZN21QQuickTumblerAttached11qt_metacastEPKc@Qt_5_PRIVATE_API 5.6.0~beta
 _ZN21QQuickTumblerAttached16staticMetaObjectE@Qt_5_PRIVATE_API 5.6.0~beta
 _ZN21QQuickTumblerAttached19displacementChangedEv@Qt_5_PRIVATE_API 5.6.0~beta
 _ZN21QQuickTumblerAttachedC1EP7QObject@Qt_5_PRIVATE_API 5.9.0~rc
 _ZN21QQuickTumblerAttachedC2EP7QObject@Qt_5_PRIVATE_API 5.9.0~rc
 _ZN21QQuickTumblerAttachedD0Ev@Qt_5_PRIVATE_API 5.6.0~beta
 _ZN21QQuickTumblerAttachedD1Ev@Qt_5_PRIVATE_API 5.6.0~beta
 _ZN21QQuickTumblerAttachedD2Ev@Qt_5_PRIVATE_API 5.6.0~beta
 _ZN22QQuickContainerPrivate10insertItemEiP10QQuickItem@Qt_5_PRIVATE_API 5.6.0~beta
 _ZN22QQuickContainerPrivate10removeItemEiP10QQuickItem@Qt_5_PRIVATE_API 5.6.0~beta
 _ZN22QQuickContainerPrivate13itemDestroyedEP10QQuickItem@Qt_5_PRIVATE_API 5.6.0~beta
 _ZN22QQuickContainerPrivate14contentData_atEP16QQmlListPropertyI7QObjectEi@Qt_5_PRIVATE_API 5.6.0~beta
 _ZN22QQuickContainerPrivate14itemChildAddedEP10QQuickItemS1_@Qt_5_PRIVATE_API 5.6.0~beta
 _ZN22QQuickContainerPrivate17contentData_clearEP16QQmlListPropertyI7QObjectE@Qt_5_PRIVATE_API 5.6.0~beta
 _ZN22QQuickContainerPrivate17contentData_countEP16QQmlListPropertyI7QObjectE@Qt_5_PRIVATE_API 5.6.0~beta
 _ZN22QQuickContainerPrivate17itemParentChangedEP10QQuickItemS1_@Qt_5_PRIVATE_API 5.6.0~beta
 _ZN22QQuickContainerPrivate18contentChildren_atEP16QQmlListPropertyI10QQuickItemEi@Qt_5_PRIVATE_API 5.6.0~beta
 _ZN22QQuickContainerPrivate18contentData_appendEP16QQmlListPropertyI7QObjectEPS1_@Qt_5_PRIVATE_API 5.6.0~beta
 _ZN22QQuickContainerPrivate21contentChildren_clearEP16QQmlListPropertyI10QQuickItemE@Qt_5_PRIVATE_API 5.6.0~beta
 _ZN22QQuickContainerPrivate21contentChildren_countEP16QQmlListPropertyI10QQuickItemE@Qt_5_PRIVATE_API 5.6.0~beta
 _ZN22QQuickContainerPrivate22_q_currentIndexChangedEv@Qt_5_PRIVATE_API 5.6.0~beta
 _ZN22QQuickContainerPrivate22contentChildren_appendEP16QQmlListPropertyI10QQuickItemEPS1_@Qt_5_PRIVATE_API 5.6.0~beta
 _ZN22QQuickContainerPrivate23itemSiblingOrderChangedEP10QQuickItem@Qt_5_PRIVATE_API 5.6.0~beta
 _ZN22QQuickContainerPrivate4initEv@Qt_5_PRIVATE_API 5.6.0~beta
 _ZN22QQuickContainerPrivate7cleanupEv@Qt_5_PRIVATE_API 5.6.0~beta
 _ZN22QQuickContainerPrivate8moveItemEii@Qt_5_PRIVATE_API 5.6.0~beta
 _ZN22QQuickContainerPrivateC1Ev@Qt_5_PRIVATE_API 5.6.0~beta
 _ZN22QQuickContainerPrivateC2Ev@Qt_5_PRIVATE_API 5.6.0~beta
 _ZN22QQuickTextAreaAttached11qt_metacallEN11QMetaObject4CallEiPPv@Qt_5_PRIVATE_API 5.7.1
 _ZN22QQuickTextAreaAttached11qt_metacastEPKc@Qt_5_PRIVATE_API 5.7.1
 _ZN22QQuickTextAreaAttached12setFlickableEP14QQuickTextArea@Qt_5_PRIVATE_API 5.7.1
 _ZN22QQuickTextAreaAttached16flickableChangedEv@Qt_5_PRIVATE_API 5.7.1
 _ZN22QQuickTextAreaAttached16staticMetaObjectE@Qt_5_PRIVATE_API 5.7.1
 _ZN22QQuickTextAreaAttachedC1EP7QObject@Qt_5_PRIVATE_API 5.7.1
 _ZN22QQuickTextAreaAttachedC2EP7QObject@Qt_5_PRIVATE_API 5.7.1
 _ZN23QQuickApplicationWindow10classBeginEv@Qt_5_PRIVATE_API 5.7.1
 _ZN23QQuickApplicationWindow11contentDataEv@Qt_5_PRIVATE_API 5.6.0~beta
 _ZN23QQuickApplicationWindow11fontChangedEv@Qt_5_PRIVATE_API 5.6.0~beta
 _ZN23QQuickApplicationWindow11qt_metacallEN11QMetaObject4CallEiPPv@Qt_5_PRIVATE_API 5.6.0~beta
 _ZN23QQuickApplicationWindow11qt_metacastEPKc@Qt_5_PRIVATE_API 5.6.0~beta
 _ZN23QQuickApplicationWindow11resetLocaleEv@Qt_5_PRIVATE_API 5.7.1
 _ZN23QQuickApplicationWindow11resizeEventEP12QResizeEvent@Qt_5_PRIVATE_API 5.6.0~beta
 _ZN23QQuickApplicationWindow13footerChangedEv@Qt_5_PRIVATE_API 5.6.0~beta
 _ZN23QQuickApplicationWindow13headerChangedEv@Qt_5_PRIVATE_API 5.6.0~beta
 _ZN23QQuickApplicationWindow13localeChangedEv@Qt_5_PRIVATE_API 5.7.1
 _ZN23QQuickApplicationWindow13setBackgroundEP10QQuickItem@Qt_5_PRIVATE_API 5.7.1
 _ZN23QQuickApplicationWindow16staticMetaObjectE@Qt_5_PRIVATE_API 5.6.0~beta
 _ZN23QQuickApplicationWindow17backgroundChangedEv@Qt_5_PRIVATE_API 5.7.1
 _ZN23QQuickApplicationWindow17componentCompleteEv@Qt_5_PRIVATE_API 5.6.0~beta
 _ZN23QQuickApplicationWindow21qmlAttachedPropertiesEP7QObject@Qt_5_PRIVATE_API 5.6.0~beta
 _ZN23QQuickApplicationWindow25activeFocusControlChangedEv@Qt_5_PRIVATE_API 5.6.0~beta
 _ZN23QQuickApplicationWindow7setFontERK5QFont@Qt_5_PRIVATE_API 5.6.0~beta
 _ZN23QQuickApplicationWindow9resetFontEv@Qt_5_PRIVATE_API 5.6.0~beta
 _ZN23QQuickApplicationWindow9setFooterEP10QQuickItem@Qt_5_PRIVATE_API 5.6.0~beta
 _ZN23QQuickApplicationWindow9setHeaderEP10QQuickItem@Qt_5_PRIVATE_API 5.6.0~beta
 _ZN23QQuickApplicationWindow9setLocaleERK7QLocale@Qt_5_PRIVATE_API 5.7.1
 _ZN23QQuickApplicationWindowC1EP7QWindow@Qt_5_PRIVATE_API 5.6.0~beta
 _ZN23QQuickApplicationWindowC2EP7QWindow@Qt_5_PRIVATE_API 5.6.0~beta
 _ZN23QQuickApplicationWindowD0Ev@Qt_5_PRIVATE_API 5.6.0~beta
 _ZN23QQuickApplicationWindowD1Ev@Qt_5_PRIVATE_API 5.6.0~beta
 _ZN23QQuickApplicationWindowD2Ev@Qt_5_PRIVATE_API 5.6.0~beta
 _ZN23QQuickScrollBarAttached11qt_metacallEN11QMetaObject4CallEiPPv@Qt_5_PRIVATE_API 5.6.0~beta
 _ZN23QQuickScrollBarAttached11qt_metacastEPKc@Qt_5_PRIVATE_API 5.6.0~beta
 _ZN23QQuickScrollBarAttached11setVerticalEP15QQuickScrollBar@Qt_5_PRIVATE_API 5.6.0~beta
 _ZN23QQuickScrollBarAttached13setHorizontalEP15QQuickScrollBar@Qt_5_PRIVATE_API 5.6.0~beta
 _ZN23QQuickScrollBarAttached15verticalChangedEv@Qt_5_PRIVATE_API 5.6.0~beta
 _ZN23QQuickScrollBarAttached16staticMetaObjectE@Qt_5_PRIVATE_API 5.6.0~beta
 _ZN23QQuickScrollBarAttached17horizontalChangedEv@Qt_5_PRIVATE_API 5.6.0~beta
 _ZN23QQuickScrollBarAttachedC1EP7QObject@Qt_5_PRIVATE_API 5.9.0~rc
 _ZN23QQuickScrollBarAttachedC2EP7QObject@Qt_5_PRIVATE_API 5.9.0~rc
 _ZN23QQuickScrollBarAttachedD0Ev@Qt_5_PRIVATE_API 5.6.0~beta
 _ZN23QQuickScrollBarAttachedD1Ev@Qt_5_PRIVATE_API 5.6.0~beta
 _ZN23QQuickScrollBarAttachedD2Ev@Qt_5_PRIVATE_API 5.6.0~beta
 _ZN23QQuickStackViewAttached10activatingEv@Qt_5_PRIVATE_API 5.9.0~rc
 _ZN23QQuickStackViewAttached10setVisibleEb@Qt_5_PRIVATE_API 5.9.0~rc
 _ZN23QQuickStackViewAttached11deactivatedEv@Qt_5_PRIVATE_API 5.9.0~rc
 _ZN23QQuickStackViewAttached11qt_metacallEN11QMetaObject4CallEiPPv@Qt_5_PRIVATE_API 5.9.0~rc
 _ZN23QQuickStackViewAttached11qt_metacastEPKc@Qt_5_PRIVATE_API 5.9.0~rc
 _ZN23QQuickStackViewAttached11viewChangedEv@Qt_5_PRIVATE_API 5.9.0~rc
 _ZN23QQuickStackViewAttached12deactivatingEv@Qt_5_PRIVATE_API 5.9.0~rc
 _ZN23QQuickStackViewAttached12indexChangedEv@Qt_5_PRIVATE_API 5.9.0~rc
 _ZN23QQuickStackViewAttached12resetVisibleEv@Qt_5_PRIVATE_API 5.9.0~rc
 _ZN23QQuickStackViewAttached13statusChangedEv@Qt_5_PRIVATE_API 5.9.0~rc
 _ZN23QQuickStackViewAttached14visibleChangedEv@Qt_5_PRIVATE_API 5.9.0~rc
 _ZN23QQuickStackViewAttached16staticMetaObjectE@Qt_5_PRIVATE_API 5.9.0~rc
 _ZN23QQuickStackViewAttached7removedEv@Qt_5_PRIVATE_API 5.9.0~rc
 _ZN23QQuickStackViewAttached9activatedEv@Qt_5_PRIVATE_API 5.9.0~rc
 _ZN23QQuickStackViewAttachedC1EP7QObject@Qt_5_PRIVATE_API 5.9.0~rc
 _ZN23QQuickStackViewAttachedC2EP7QObject@Qt_5_PRIVATE_API 5.9.0~rc
 _ZN23QQuickStackViewAttachedD0Ev@Qt_5_PRIVATE_API 5.9.0~rc
 _ZN23QQuickStackViewAttachedD1Ev@Qt_5_PRIVATE_API 5.9.0~rc
 _ZN23QQuickStackViewAttachedD2Ev@Qt_5_PRIVATE_API 5.9.0~rc
 _ZN23QQuickSwipeViewAttached11qt_metacallEN11QMetaObject4CallEiPPv@Qt_5_PRIVATE_API 5.6.0~beta
 _ZN23QQuickSwipeViewAttached11qt_metacastEPKc@Qt_5_PRIVATE_API 5.6.0~beta
 _ZN23QQuickSwipeViewAttached11viewChangedEv@Qt_5_PRIVATE_API 5.6.0~beta
 _ZN23QQuickSwipeViewAttached12indexChangedEv@Qt_5_PRIVATE_API 5.6.0~beta
 _ZN23QQuickSwipeViewAttached16staticMetaObjectE@Qt_5_PRIVATE_API 5.6.0~beta
 _ZN23QQuickSwipeViewAttached17isNextItemChangedEv@Qt_5_PRIVATE_API 5.9.0~rc
 _ZN23QQuickSwipeViewAttached20isCurrentItemChangedEv@Qt_5_PRIVATE_API 5.6.0~beta
 _ZN23QQuickSwipeViewAttached21isPreviousItemChangedEv@Qt_5_PRIVATE_API 5.9.0~rc
 _ZN23QQuickSwipeViewAttachedC1EP7QObject@Qt_5_PRIVATE_API 5.9.0~rc
 _ZN23QQuickSwipeViewAttachedC2EP7QObject@Qt_5_PRIVATE_API 5.9.0~rc
 _ZN23QQuickSwipeViewAttachedD0Ev@Qt_5_PRIVATE_API 5.6.0~beta
 _ZN23QQuickSwipeViewAttachedD1Ev@Qt_5_PRIVATE_API 5.6.0~beta
 _ZN23QQuickSwipeViewAttachedD2Ev@Qt_5_PRIVATE_API 5.6.0~beta
 _ZN25QQuickButtonGroupAttached11qt_metacallEN11QMetaObject4CallEiPPv@Qt_5_PRIVATE_API 5.6.0~beta
 _ZN25QQuickButtonGroupAttached11qt_metacastEPKc@Qt_5_PRIVATE_API 5.6.0~beta
 _ZN25QQuickButtonGroupAttached12groupChangedEv@Qt_5_PRIVATE_API 5.6.0~beta
 _ZN25QQuickButtonGroupAttached16staticMetaObjectE@Qt_5_PRIVATE_API 5.6.0~beta
 _ZN25QQuickButtonGroupAttached8setGroupEP17QQuickButtonGroup@Qt_5_PRIVATE_API 5.6.0~beta
 _ZN25QQuickButtonGroupAttachedC1EP7QObject@Qt_5_PRIVATE_API 5.6.0~beta
 _ZN25QQuickButtonGroupAttachedC2EP7QObject@Qt_5_PRIVATE_API 5.6.0~beta
 _ZN27QQuickAbstractButtonPrivate10handleMoveERK7QPointF@Qt_5_PRIVATE_API 5.9.0~rc
 _ZN27QQuickAbstractButtonPrivate11handlePressERK7QPointF@Qt_5_PRIVATE_API 5.9.0~rc
 _ZN27QQuickAbstractButtonPrivate12handleUngrabEv@Qt_5_PRIVATE_API 5.9.0~rc
 _ZN27QQuickAbstractButtonPrivate13handleReleaseERK7QPointF@Qt_5_PRIVATE_API 5.9.0~rc
 _ZN27QQuickAbstractButtonPrivate15stopPressRepeatEv@Qt_5_PRIVATE_API 5.9.0~rc
 _ZN27QQuickAbstractButtonPrivate16startPressRepeatEv@Qt_5_PRIVATE_API 5.9.0~rc
 _ZN27QQuickAbstractButtonPrivate16startRepeatDelayEv@Qt_5_PRIVATE_API 5.9.0~rc
 _ZN27QQuickAbstractButtonPrivate16stopPressAndHoldEv@Qt_5_PRIVATE_API 5.9.0~rc
 _ZN27QQuickAbstractButtonPrivate17startPressAndHoldEv@Qt_5_PRIVATE_API 5.9.0~rc
 _ZN27QQuickAbstractButtonPrivate23isPressAndHoldConnectedEv@Qt_5_PRIVATE_API 5.9.0~rc
 _ZN27QQuickAbstractButtonPrivate6toggleEb@Qt_5_PRIVATE_API 5.9.0~rc
 _ZN27QQuickAbstractButtonPrivateC1Ev@Qt_5_PRIVATE_API 5.9.0~rc
 _ZN27QQuickAbstractButtonPrivateC2Ev@Qt_5_PRIVATE_API 5.9.0~rc
 _ZN27QQuickSwipeDelegateAttached10setPressedEb@Qt_5_PRIVATE_API 5.9.0~rc
 _ZN27QQuickSwipeDelegateAttached11qt_metacallEN11QMetaObject4CallEiPPv@Qt_5_PRIVATE_API 5.9.0~rc
 _ZN27QQuickSwipeDelegateAttached11qt_metacastEPKc@Qt_5_PRIVATE_API 5.9.0~rc
 _ZN27QQuickSwipeDelegateAttached14pressedChangedEv@Qt_5_PRIVATE_API 5.9.0~rc
 _ZN27QQuickSwipeDelegateAttached16staticMetaObjectE@Qt_5_PRIVATE_API 5.9.0~rc
 _ZN27QQuickSwipeDelegateAttached7clickedEv@Qt_5_PRIVATE_API 5.9.0~rc
 _ZN27QQuickSwipeDelegateAttachedC1EP7QObject@Qt_5_PRIVATE_API 5.9.0~rc
 _ZN27QQuickSwipeDelegateAttachedC2EP7QObject@Qt_5_PRIVATE_API 5.9.0~rc
 _ZN29QQuickDialogButtonBoxAttached11qt_metacallEN11QMetaObject4CallEiPPv@Qt_5_PRIVATE_API 5.9.0~rc
 _ZN29QQuickDialogButtonBoxAttached11qt_metacastEPKc@Qt_5_PRIVATE_API 5.9.0~rc
 _ZN29QQuickDialogButtonBoxAttached13setButtonRoleEN21QPlatformDialogHelper10ButtonRoleE@Qt_5_PRIVATE_API 5.9.0~rc
 _ZN29QQuickDialogButtonBoxAttached16buttonBoxChangedEv@Qt_5_PRIVATE_API 5.9.0~rc
 _ZN29QQuickDialogButtonBoxAttached16staticMetaObjectE@Qt_5_PRIVATE_API 5.9.0~rc
 _ZN29QQuickDialogButtonBoxAttached17buttonRoleChangedEv@Qt_5_PRIVATE_API 5.9.0~rc
 _ZN29QQuickDialogButtonBoxAttachedC1EP7QObject@Qt_5_PRIVATE_API 5.9.0~rc
 _ZN29QQuickDialogButtonBoxAttachedC2EP7QObject@Qt_5_PRIVATE_API 5.9.0~rc
 _ZN29QQuickScrollIndicatorAttached11qt_metacallEN11QMetaObject4CallEiPPv@Qt_5_PRIVATE_API 5.6.0~beta
 _ZN29QQuickScrollIndicatorAttached11qt_metacastEPKc@Qt_5_PRIVATE_API 5.6.0~beta
 _ZN29QQuickScrollIndicatorAttached11setVerticalEP21QQuickScrollIndicator@Qt_5_PRIVATE_API 5.6.0~beta
 _ZN29QQuickScrollIndicatorAttached13setHorizontalEP21QQuickScrollIndicator@Qt_5_PRIVATE_API 5.6.0~beta
 _ZN29QQuickScrollIndicatorAttached15verticalChangedEv@Qt_5_PRIVATE_API 5.6.0~beta
 _ZN29QQuickScrollIndicatorAttached16staticMetaObjectE@Qt_5_PRIVATE_API 5.6.0~beta
 _ZN29QQuickScrollIndicatorAttached17horizontalChangedEv@Qt_5_PRIVATE_API 5.6.0~beta
 _ZN29QQuickScrollIndicatorAttachedC1EP7QObject@Qt_5_PRIVATE_API 5.9.0~rc
 _ZN29QQuickScrollIndicatorAttachedC2EP7QObject@Qt_5_PRIVATE_API 5.9.0~rc
 _ZN29QQuickScrollIndicatorAttachedD0Ev@Qt_5_PRIVATE_API 5.6.0~beta
 _ZN29QQuickScrollIndicatorAttachedD1Ev@Qt_5_PRIVATE_API 5.6.0~beta
 _ZN29QQuickScrollIndicatorAttachedD2Ev@Qt_5_PRIVATE_API 5.6.0~beta
 _ZN31QQuickApplicationWindowAttached11qt_metacallEN11QMetaObject4CallEiPPv@Qt_5_PRIVATE_API 5.6.0~beta
 _ZN31QQuickApplicationWindowAttached11qt_metacastEPKc@Qt_5_PRIVATE_API 5.6.0~beta
 _ZN31QQuickApplicationWindowAttached13footerChangedEv@Qt_5_PRIVATE_API 5.6.0~beta
 _ZN31QQuickApplicationWindowAttached13headerChangedEv@Qt_5_PRIVATE_API 5.6.0~beta
 _ZN31QQuickApplicationWindowAttached13windowChangedEv@Qt_5_PRIVATE_API 5.6.0~beta
 _ZN31QQuickApplicationWindowAttached14overlayChangedEv@Qt_5_PRIVATE_API 5.6.0~beta
 _ZN31QQuickApplicationWindowAttached16staticMetaObjectE@Qt_5_PRIVATE_API 5.6.0~beta
 _ZN31QQuickApplicationWindowAttached18contentItemChangedEv@Qt_5_PRIVATE_API 5.6.0~beta
 _ZN31QQuickApplicationWindowAttached25activeFocusControlChangedEv@Qt_5_PRIVATE_API 5.6.0~beta
 _ZN31QQuickApplicationWindowAttachedC1EP7QObject@Qt_5_PRIVATE_API 5.6.0~beta
 _ZN31QQuickApplicationWindowAttachedC2EP7QObject@Qt_5_PRIVATE_API 5.6.0~beta
 _ZNK10QQuickDial10metaObjectEv@Qt_5_PRIVATE_API 5.6.0~beta
 _ZNK10QQuickDial14accessibleRoleEv@Qt_5_PRIVATE_API 5.6.0~beta
 _ZNK10QQuickDial2toEv@Qt_5_PRIVATE_API 5.6.0~beta
 _ZNK10QQuickDial4fromEv@Qt_5_PRIVATE_API 5.6.0~beta
 _ZNK10QQuickDial4liveEv@Qt_5_PRIVATE_API 5.9.0~rc
 _ZNK10QQuickDial4wrapEv@Qt_5_PRIVATE_API 5.7.1
 _ZNK10QQuickDial5angleEv@Qt_5_PRIVATE_API 5.6.0~beta
 _ZNK10QQuickDial5valueEv@Qt_5_PRIVATE_API 5.6.0~beta
 _ZNK10QQuickDial6handleEv@Qt_5_PRIVATE_API 5.6.0~beta
 _ZNK10QQuickDial8positionEv@Qt_5_PRIVATE_API 5.6.0~beta
 _ZNK10QQuickDial8snapModeEv@Qt_5_PRIVATE_API 5.6.0~beta
 _ZNK10QQuickDial8stepSizeEv@Qt_5_PRIVATE_API 5.6.0~beta
 _ZNK10QQuickDial9isPressedEv@Qt_5_PRIVATE_API 5.6.0~beta
 _ZNK10QQuickMenu10metaObjectEv@Qt_5_PRIVATE_API 5.6.0~beta
 _ZNK10QQuickMenu11defaultFontEv@Qt_5_PRIVATE_API 5.9.1
 _ZNK10QQuickMenu12contentModelEv@Qt_5_PRIVATE_API 5.6.0~beta
 _ZNK10QQuickMenu14accessibleRoleEv@Qt_5_PRIVATE_API 5.7.1
 _ZNK10QQuickMenu5titleEv@Qt_5_PRIVATE_API 5.7.1
 _ZNK10QQuickMenu6itemAtEi@Qt_5_PRIVATE_API 5.6.0~beta
 _ZNK10QQuickPage10metaObjectEv@Qt_5_PRIVATE_API 5.7.1
 _ZNK10QQuickPage12contentWidthEv@Qt_5_PRIVATE_API 5.9.0~rc
 _ZNK10QQuickPage13contentHeightEv@Qt_5_PRIVATE_API 5.9.0~rc
 _ZNK10QQuickPage14accessibleRoleEv@Qt_5_PRIVATE_API 5.7.1
 _ZNK10QQuickPage5titleEv@Qt_5_PRIVATE_API 5.7.1
 _ZNK10QQuickPage6footerEv@Qt_5_PRIVATE_API 5.7.1
 _ZNK10QQuickPage6headerEv@Qt_5_PRIVATE_API 5.7.1
 _ZNK10QQuickPane10metaObjectEv@Qt_5_PRIVATE_API 5.6.0~beta
 _ZNK10QQuickPane12contentWidthEv@Qt_5_PRIVATE_API 5.6.0~beta
 _ZNK10QQuickPane13contentHeightEv@Qt_5_PRIVATE_API 5.6.0~beta
 _ZNK10QQuickPane14accessibleRoleEv@Qt_5_PRIVATE_API 5.6.0~beta
 _ZNK11QQuickFrame10metaObjectEv@Qt_5_PRIVATE_API 5.6.0~beta
 _ZNK11QQuickFrame14accessibleRoleEv@Qt_5_PRIVATE_API 5.9.0~rc
 _ZNK11QQuickLabel10backgroundEv@Qt_5_PRIVATE_API 5.6.0~beta
 _ZNK11QQuickLabel10metaObjectEv@Qt_5_PRIVATE_API 5.6.0~beta
 _ZNK11QQuickLabel4fontEv@Qt_5_PRIVATE_API 5.6.0~beta
 _ZNK11QQuickPopup10backgroundEv@Qt_5_PRIVATE_API 5.7.1
 _ZNK11QQuickPopup10leftMarginEv@Qt_5_PRIVATE_API 5.7.1
 _ZNK11QQuickPopup10metaObjectEv@Qt_5_PRIVATE_API 5.6.0~beta
 _ZNK11QQuickPopup10parentItemEv@Qt_5_PRIVATE_API 5.7.1
 _ZNK11QQuickPopup10topPaddingEv@Qt_5_PRIVATE_API 5.7.1
 _ZNK11QQuickPopup11closePolicyEv@Qt_5_PRIVATE_API 5.7.1
 _ZNK11QQuickPopup11contentItemEv@Qt_5_PRIVATE_API 5.6.0~beta
 _ZNK11QQuickPopup11defaultFontEv@Qt_5_PRIVATE_API 5.7.1
 _ZNK11QQuickPopup11leftPaddingEv@Qt_5_PRIVATE_API 5.7.1
 _ZNK11QQuickPopup11rightMarginEv@Qt_5_PRIVATE_API 5.7.1
 _ZNK11QQuickPopup12bottomMarginEv@Qt_5_PRIVATE_API 5.7.1
 _ZNK11QQuickPopup12contentWidthEv@Qt_5_PRIVATE_API 5.7.1
 _ZNK11QQuickPopup12rightPaddingEv@Qt_5_PRIVATE_API 5.7.1
 _ZNK11QQuickPopup13bottomPaddingEv@Qt_5_PRIVATE_API 5.7.1
 _ZNK11QQuickPopup13contentHeightEv@Qt_5_PRIVATE_API 5.7.1
 _ZNK11QQuickPopup13implicitWidthEv@Qt_5_PRIVATE_API 5.7.1
 _ZNK11QQuickPopup14accessibleNameEv@Qt_5_PRIVATE_API 5.9.0~rc
 _ZNK11QQuickPopup14accessibleRoleEv@Qt_5_PRIVATE_API 5.7.1
 _ZNK11QQuickPopup14availableWidthEv@Qt_5_PRIVATE_API 5.7.1
 _ZNK11QQuickPopup14hasActiveFocusEv@Qt_5_PRIVATE_API 5.7.1
 _ZNK11QQuickPopup14implicitHeightEv@Qt_5_PRIVATE_API 5.7.1
 _ZNK11QQuickPopup15availableHeightEv@Qt_5_PRIVATE_API 5.7.1
 _ZNK11QQuickPopup15transformOriginEv@Qt_5_PRIVATE_API 5.7.1
 _ZNK11QQuickPopup19isComponentCompleteEv@Qt_5_PRIVATE_API 5.7.1
 _ZNK11QQuickPopup1xEv@Qt_5_PRIVATE_API 5.7.1
 _ZNK11QQuickPopup1yEv@Qt_5_PRIVATE_API 5.7.1
 _ZNK11QQuickPopup1zEv@Qt_5_PRIVATE_API 5.7.1
 _ZNK11QQuickPopup23filtersChildMouseEventsEv@Qt_5_PRIVATE_API 5.7.1
 _ZNK11QQuickPopup3dimEv@Qt_5_PRIVATE_API 5.7.1
 _ZNK11QQuickPopup4clipEv@Qt_5_PRIVATE_API 5.7.1
 _ZNK11QQuickPopup4exitEv@Qt_5_PRIVATE_API 5.7.1
 _ZNK11QQuickPopup4fontEv@Qt_5_PRIVATE_API 5.7.1
 _ZNK11QQuickPopup5enterEv@Qt_5_PRIVATE_API 5.7.1
 _ZNK11QQuickPopup5scaleEv@Qt_5_PRIVATE_API 5.7.1
 _ZNK11QQuickPopup5widthEv@Qt_5_PRIVATE_API 5.7.1
 _ZNK11QQuickPopup6heightEv@Qt_5_PRIVATE_API 5.7.1
 _ZNK11QQuickPopup6localeEv@Qt_5_PRIVATE_API 5.7.1
 _ZNK11QQuickPopup6windowEv@Qt_5_PRIVATE_API 5.7.1
 _ZNK11QQuickPopup7isModalEv@Qt_5_PRIVATE_API 5.6.0~beta
 _ZNK11QQuickPopup7marginsEv@Qt_5_PRIVATE_API 5.7.1
 _ZNK11QQuickPopup7opacityEv@Qt_5_PRIVATE_API 5.7.1
 _ZNK11QQuickPopup7paddingEv@Qt_5_PRIVATE_API 5.7.1
 _ZNK11QQuickPopup7spacingEv@Qt_5_PRIVATE_API 5.9.0~rc
 _ZNK11QQuickPopup8hasFocusEv@Qt_5_PRIVATE_API 5.6.0~beta
 _ZNK11QQuickPopup8positionEv@Qt_5_PRIVATE_API 5.7.1
 _ZNK11QQuickPopup9isVisibleEv@Qt_5_PRIVATE_API 5.6.0~beta
 _ZNK11QQuickPopup9popupItemEv@Qt_5_PRIVATE_API 5.7.1
 _ZNK11QQuickPopup9topMarginEv@Qt_5_PRIVATE_API 5.7.1
 _ZNK11QQuickSwipe10behindItemEv@Qt_5_PRIVATE_API 5.7.1
 _ZNK11QQuickSwipe10isCompleteEv@Qt_5_PRIVATE_API 5.7.1
 _ZNK11QQuickSwipe10metaObjectEv@Qt_5_PRIVATE_API 5.7.1
 _ZNK11QQuickSwipe10transitionEv@Qt_5_PRIVATE_API 5.9.0~rc
 _ZNK11QQuickSwipe4leftEv@Qt_5_PRIVATE_API 5.7.1
 _ZNK11QQuickSwipe5rightEv@Qt_5_PRIVATE_API 5.7.1
 _ZNK11QQuickSwipe6behindEv@Qt_5_PRIVATE_API 5.7.1
 _ZNK11QQuickSwipe8leftItemEv@Qt_5_PRIVATE_API 5.7.1
 _ZNK11QQuickSwipe8positionEv@Qt_5_PRIVATE_API 5.7.1
 _ZNK11QQuickSwipe9isEnabledEv@Qt_5_PRIVATE_API 5.9.0~rc
 _ZNK11QQuickSwipe9rightItemEv@Qt_5_PRIVATE_API 5.7.1
 _ZNK12QQuickButton10metaObjectEv@Qt_5_PRIVATE_API 5.6.0~beta
 _ZNK12QQuickButton11defaultFontEv@Qt_5_PRIVATE_API 5.6.0~beta
 _ZNK12QQuickButton13isHighlightedEv@Qt_5_PRIVATE_API 5.7.1
 _ZNK12QQuickButton6isFlatEv@Qt_5_PRIVATE_API 5.7.1
 _ZNK12QQuickDialog10metaObjectEv@Qt_5_PRIVATE_API 5.9.0~rc
 _ZNK12QQuickDialog14accessibleRoleEv@Qt_5_PRIVATE_API 5.9.0~rc
 _ZNK12QQuickDialog15standardButtonsEv@Qt_5_PRIVATE_API 5.9.0~rc
 _ZNK12QQuickDialog5titleEv@Qt_5_PRIVATE_API 5.9.0~rc
 _ZNK12QQuickDialog6footerEv@Qt_5_PRIVATE_API 5.9.0~rc
 _ZNK12QQuickDialog6headerEv@Qt_5_PRIVATE_API 5.9.0~rc
 _ZNK12QQuickDrawer10dragMarginEv@Qt_5_PRIVATE_API 5.7.1
 _ZNK12QQuickDrawer10metaObjectEv@Qt_5_PRIVATE_API 5.6.0~beta
 _ZNK12QQuickDrawer13isInteractiveEv@Qt_5_PRIVATE_API 5.9.0~rc
 _ZNK12QQuickDrawer4edgeEv@Qt_5_PRIVATE_API 5.6.0~beta
 _ZNK12QQuickDrawer8positionEv@Qt_5_PRIVATE_API 5.6.0~beta
 _ZNK12QQuickSlider10metaObjectEv@Qt_5_PRIVATE_API 5.6.0~beta
 _ZNK12QQuickSlider11orientationEv@Qt_5_PRIVATE_API 5.6.0~beta
 _ZNK12QQuickSlider14accessibleRoleEv@Qt_5_PRIVATE_API 5.6.0~beta
 _ZNK12QQuickSlider14visualPositionEv@Qt_5_PRIVATE_API 5.6.0~beta
 _ZNK12QQuickSlider2toEv@Qt_5_PRIVATE_API 5.6.0~beta
 _ZNK12QQuickSlider4fromEv@Qt_5_PRIVATE_API 5.6.0~beta
 _ZNK12QQuickSlider4liveEv@Qt_5_PRIVATE_API 5.9.0~rc
 _ZNK12QQuickSlider5valueEv@Qt_5_PRIVATE_API 5.6.0~beta
 _ZNK12QQuickSlider6handleEv@Qt_5_PRIVATE_API 5.6.0~beta
 _ZNK12QQuickSlider7valueAtEd@Qt_5_PRIVATE_API 5.9.0~rc
 _ZNK12QQuickSlider8positionEv@Qt_5_PRIVATE_API 5.6.0~beta
 _ZNK12QQuickSlider8snapModeEv@Qt_5_PRIVATE_API 5.6.0~beta
 _ZNK12QQuickSlider8stepSizeEv@Qt_5_PRIVATE_API 5.6.0~beta
 _ZNK12QQuickSlider9isPressedEv@Qt_5_PRIVATE_API 5.6.0~beta
 _ZNK12QQuickSwitch10metaObjectEv@Qt_5_PRIVATE_API 5.6.0~beta
 _ZNK12QQuickSwitch14visualPositionEv@Qt_5_PRIVATE_API 5.6.0~beta
 _ZNK12QQuickSwitch8positionEv@Qt_5_PRIVATE_API 5.6.0~beta
 _ZNK12QQuickTabBar10metaObjectEv@Qt_5_PRIVATE_API 5.6.0~beta
 _ZNK12QQuickTabBar12contentWidthEv@Qt_5_PRIVATE_API 5.9.0~rc
 _ZNK12QQuickTabBar13contentHeightEv@Qt_5_PRIVATE_API 5.9.0~rc
 _ZNK12QQuickTabBar14accessibleRoleEv@Qt_5_PRIVATE_API 5.6.0~beta
 _ZNK12QQuickTabBar8positionEv@Qt_5_PRIVATE_API 5.7.1
 _ZNK12QQuickTabBar9isContentEP10QQuickItem@Qt_5_PRIVATE_API 5.6.0~beta
 _ZNK13QQuickControl10backgroundEv@Qt_5_PRIVATE_API 5.6.0~beta
 _ZNK13QQuickControl10isMirroredEv@Qt_5_PRIVATE_API 5.6.0~beta
 _ZNK13QQuickControl10metaObjectEv@Qt_5_PRIVATE_API 5.6.0~beta
 _ZNK13QQuickControl10topPaddingEv@Qt_5_PRIVATE_API 5.6.0~beta
 _ZNK13QQuickControl11contentItemEv@Qt_5_PRIVATE_API 5.6.0~beta
 _ZNK13QQuickControl11defaultFontEv@Qt_5_PRIVATE_API 5.6.0~beta
 _ZNK13QQuickControl11focusPolicyEv@Qt_5_PRIVATE_API 5.7.1
 _ZNK13QQuickControl11focusReasonEv@Qt_5_PRIVATE_API 5.6.0~beta
 _ZNK13QQuickControl11leftPaddingEv@Qt_5_PRIVATE_API 5.6.0~beta
 _ZNK13QQuickControl12rightPaddingEv@Qt_5_PRIVATE_API 5.6.0~beta
 _ZNK13QQuickControl13bottomPaddingEv@Qt_5_PRIVATE_API 5.6.0~beta
 _ZNK13QQuickControl14accessibleNameEv@Qt_5_PRIVATE_API 5.6.0~beta
 _ZNK13QQuickControl14accessibleRoleEv@Qt_5_PRIVATE_API 5.6.0~beta
 _ZNK13QQuickControl14availableWidthEv@Qt_5_PRIVATE_API 5.6.0~beta
 _ZNK13QQuickControl14hasVisualFocusEv@Qt_5_PRIVATE_API 5.7.1
 _ZNK13QQuickControl14isHoverEnabledEv@Qt_5_PRIVATE_API 5.7.1
 _ZNK13QQuickControl14isWheelEnabledEv@Qt_5_PRIVATE_API 5.7.1
 _ZNK13QQuickControl15availableHeightEv@Qt_5_PRIVATE_API 5.6.0~beta
 _ZNK13QQuickControl4fontEv@Qt_5_PRIVATE_API 5.6.0~beta
 _ZNK13QQuickControl6localeEv@Qt_5_PRIVATE_API 5.6.0~beta
 _ZNK13QQuickControl7paddingEv@Qt_5_PRIVATE_API 5.6.0~beta
 _ZNK13QQuickControl7spacingEv@Qt_5_PRIVATE_API 5.6.0~beta
 _ZNK13QQuickControl9isHoveredEv@Qt_5_PRIVATE_API 5.7.1
 _ZNK13QQuickOverlay10metaObjectEv@Qt_5_PRIVATE_API 5.7.1
 _ZNK13QQuickOverlay5modalEv@Qt_5_PRIVATE_API 5.7.1
 _ZNK13QQuickOverlay8modelessEv@Qt_5_PRIVATE_API 5.7.1
 _ZNK13QQuickSpinBox10isEditableEv@Qt_5_PRIVATE_API 5.7.1
 _ZNK13QQuickSpinBox10metaObjectEv@Qt_5_PRIVATE_API 5.6.0~beta
 _ZNK13QQuickSpinBox11defaultFontEv@Qt_5_PRIVATE_API 5.7.1
 _ZNK13QQuickSpinBox13textFromValueEv@Qt_5_PRIVATE_API 5.6.0~beta
 _ZNK13QQuickSpinBox13valueFromTextEv@Qt_5_PRIVATE_API 5.6.0~beta
 _ZNK13QQuickSpinBox14accessibleRoleEv@Qt_5_PRIVATE_API 5.6.0~beta
 _ZNK13QQuickSpinBox16inputMethodHintsEv@Qt_5_PRIVATE_API 5.9.0~rc
 _ZNK13QQuickSpinBox22isInputMethodComposingEv@Qt_5_PRIVATE_API 5.9.0~rc
 _ZNK13QQuickSpinBox2toEv@Qt_5_PRIVATE_API 5.6.0~beta
 _ZNK13QQuickSpinBox2upEv@Qt_5_PRIVATE_API 5.6.0~beta
 _ZNK13QQuickSpinBox4downEv@Qt_5_PRIVATE_API 5.6.0~beta
 _ZNK13QQuickSpinBox4fromEv@Qt_5_PRIVATE_API 5.6.0~beta
 _ZNK13QQuickSpinBox5valueEv@Qt_5_PRIVATE_API 5.6.0~beta
 _ZNK13QQuickSpinBox8stepSizeEv@Qt_5_PRIVATE_API 5.6.0~beta
 _ZNK13QQuickSpinBox9validatorEv@Qt_5_PRIVATE_API 5.6.0~beta
 _ZNK13QQuickToolBar10metaObjectEv@Qt_5_PRIVATE_API 5.6.0~beta
 _ZNK13QQuickToolBar14accessibleRoleEv@Qt_5_PRIVATE_API 5.6.0~beta
 _ZNK13QQuickToolBar8positionEv@Qt_5_PRIVATE_API 5.7.1
 _ZNK13QQuickToolTip10metaObjectEv@Qt_5_PRIVATE_API 5.7.1
 _ZNK13QQuickToolTip11defaultFontEv@Qt_5_PRIVATE_API 5.7.1
 _ZNK13QQuickToolTip14accessibleRoleEv@Qt_5_PRIVATE_API 5.7.1
 _ZNK13QQuickToolTip4textEv@Qt_5_PRIVATE_API 5.7.1
 _ZNK13QQuickToolTip5delayEv@Qt_5_PRIVATE_API 5.7.1
 _ZNK13QQuickToolTip7timeoutEv@Qt_5_PRIVATE_API 5.7.1
 _ZNK13QQuickTumbler10metaObjectEv@Qt_5_PRIVATE_API 5.6.0~beta
 _ZNK13QQuickTumbler11currentItemEv@Qt_5_PRIVATE_API 5.6.0~beta
 _ZNK13QQuickTumbler12currentIndexEv@Qt_5_PRIVATE_API 5.6.0~beta
 _ZNK13QQuickTumbler16visibleItemCountEv@Qt_5_PRIVATE_API 5.6.0~beta
 _ZNK13QQuickTumbler4wrapEv@Qt_5_PRIVATE_API 5.9.0~rc
 _ZNK13QQuickTumbler5countEv@Qt_5_PRIVATE_API 5.6.0~beta
 _ZNK13QQuickTumbler5modelEv@Qt_5_PRIVATE_API 5.6.0~beta
 _ZNK13QQuickTumbler8delegateEv@Qt_5_PRIVATE_API 5.6.0~beta
 _ZNK13QQuickTumbler8isMovingEv@Qt_5_PRIVATE_API 5.9.0~rc
 _ZNK14QQuickCheckBox10checkStateEv@Qt_5_PRIVATE_API 5.6.0~beta
 _ZNK14QQuickCheckBox10isTristateEv@Qt_5_PRIVATE_API 5.6.0~beta
 _ZNK14QQuickCheckBox10metaObjectEv@Qt_5_PRIVATE_API 5.6.0~beta
 _ZNK14QQuickCheckBox11defaultFontEv@Qt_5_PRIVATE_API 5.6.0~beta
 _ZNK14QQuickCheckBox14accessibleRoleEv@Qt_5_PRIVATE_API 5.6.0~beta
 _ZNK14QQuickComboBox10isEditableEv@Qt_5_PRIVATE_API 5.9.0~rc
 _ZNK14QQuickComboBox10metaObjectEv@Qt_5_PRIVATE_API 5.6.0~beta
 _ZNK14QQuickComboBox11currentTextEv@Qt_5_PRIVATE_API 5.6.0~beta
 _ZNK14QQuickComboBox11defaultFontEv@Qt_5_PRIVATE_API 5.7.1
 _ZNK14QQuickComboBox11displayTextEv@Qt_5_PRIVATE_API 5.6.0~beta
 _ZNK14QQuickComboBox12currentIndexEv@Qt_5_PRIVATE_API 5.6.0~beta
 _ZNK14QQuickComboBox13delegateModelEv@Qt_5_PRIVATE_API 5.6.0~beta
 _ZNK14QQuickComboBox14accessibleRoleEv@Qt_5_PRIVATE_API 5.9.0~rc
 _ZNK14QQuickComboBox16highlightedIndexEv@Qt_5_PRIVATE_API 5.6.0~beta
 _ZNK14QQuickComboBox16inputMethodHintsEv@Qt_5_PRIVATE_API 5.9.0~rc
 _ZNK14QQuickComboBox18hasAcceptableInputEv@Qt_5_PRIVATE_API 5.9.0~rc
 _ZNK14QQuickComboBox22isInputMethodComposingEv@Qt_5_PRIVATE_API 5.9.0~rc
 _ZNK14QQuickComboBox4findERK7QString6QFlagsIN2Qt9MatchFlagEE@Qt_5_PRIVATE_API 5.6.0~beta
 _ZNK14QQuickComboBox5countEv@Qt_5_PRIVATE_API 5.6.0~beta
 _ZNK14QQuickComboBox5modelEv@Qt_5_PRIVATE_API 5.6.0~beta
 _ZNK14QQuickComboBox5popupEv@Qt_5_PRIVATE_API 5.6.0~beta
 _ZNK14QQuickComboBox6isDownEv@Qt_5_PRIVATE_API 5.9.0~rc
 _ZNK14QQuickComboBox6isFlatEv@Qt_5_PRIVATE_API 5.9.0~rc
 _ZNK14QQuickComboBox6textAtEi@Qt_5_PRIVATE_API 5.6.0~beta
 _ZNK14QQuickComboBox8delegateEv@Qt_5_PRIVATE_API 5.6.0~beta
 _ZNK14QQuickComboBox8editTextEv@Qt_5_PRIVATE_API 5.9.0~rc
 _ZNK14QQuickComboBox8textRoleEv@Qt_5_PRIVATE_API 5.6.0~beta
 _ZNK14QQuickComboBox9indicatorEv@Qt_5_PRIVATE_API 5.7.1
 _ZNK14QQuickComboBox9isPressedEv@Qt_5_PRIVATE_API 5.6.0~beta
 _ZNK14QQuickComboBox9validatorEv@Qt_5_PRIVATE_API 5.9.0~rc
 _ZNK14QQuickGroupBox10metaObjectEv@Qt_5_PRIVATE_API 5.6.0~beta
 _ZNK14QQuickGroupBox11defaultFontEv@Qt_5_PRIVATE_API 5.6.0~beta
 _ZNK14QQuickGroupBox14accessibleRoleEv@Qt_5_PRIVATE_API 5.9.0~rc
 _ZNK14QQuickGroupBox5labelEv@Qt_5_PRIVATE_API 5.6.0~beta
 _ZNK14QQuickGroupBox5titleEv@Qt_5_PRIVATE_API 5.6.0~beta
 _ZNK14QQuickMenuItem10metaObjectEv@Qt_5_PRIVATE_API 5.6.0~beta
 _ZNK14QQuickMenuItem11defaultFontEv@Qt_5_PRIVATE_API 5.6.0~beta
 _ZNK14QQuickMenuItem13isHighlightedEv@Qt_5_PRIVATE_API 5.7.1
 _ZNK14QQuickMenuItem14accessibleRoleEv@Qt_5_PRIVATE_API 5.6.0~beta
 _ZNK14QQuickTextArea10backgroundEv@Qt_5_PRIVATE_API 5.6.0~beta
 _ZNK14QQuickTextArea10metaObjectEv@Qt_5_PRIVATE_API 5.6.0~beta
 _ZNK14QQuickTextArea11focusReasonEv@Qt_5_PRIVATE_API 5.6.0~beta
 _ZNK14QQuickTextArea14isHoverEnabledEv@Qt_5_PRIVATE_API 5.9.0~rc
 _ZNK14QQuickTextArea15placeholderTextEv@Qt_5_PRIVATE_API 5.6.0~beta
 _ZNK14QQuickTextArea4fontEv@Qt_5_PRIVATE_API 5.6.0~beta
 _ZNK14QQuickTextArea8containsERK7QPointF@Qt_5_PRIVATE_API 5.7.1
 _ZNK14QQuickTextArea9isHoveredEv@Qt_5_PRIVATE_API 5.9.0~rc
 _ZNK15QQuickContainer10metaObjectEv@Qt_5_PRIVATE_API 5.6.0~beta
 _ZNK15QQuickContainer11currentItemEv@Qt_5_PRIVATE_API 5.6.0~beta
 _ZNK15QQuickContainer12contentModelEv@Qt_5_PRIVATE_API 5.6.0~beta
 _ZNK15QQuickContainer12currentIndexEv@Qt_5_PRIVATE_API 5.6.0~beta
 _ZNK15QQuickContainer5countEv@Qt_5_PRIVATE_API 5.6.0~beta
 _ZNK15QQuickContainer6itemAtEi@Qt_5_PRIVATE_API 5.6.0~beta
 _ZNK15QQuickContainer9isContentEP10QQuickItem@Qt_5_PRIVATE_API 5.6.0~beta
 _ZNK15QQuickScrollBar10metaObjectEv@Qt_5_PRIVATE_API 5.6.0~beta
 _ZNK15QQuickScrollBar11orientationEv@Qt_5_PRIVATE_API 5.6.0~beta
 _ZNK15QQuickScrollBar13isInteractiveEv@Qt_5_PRIVATE_API 5.9.0~rc
 _ZNK15QQuickScrollBar14accessibleRoleEv@Qt_5_PRIVATE_API 5.6.0~beta
 _ZNK15QQuickScrollBar4sizeEv@Qt_5_PRIVATE_API 5.6.0~beta
 _ZNK15QQuickScrollBar6policyEv@Qt_5_PRIVATE_API 5.9.0~rc
 _ZNK15QQuickScrollBar8isActiveEv@Qt_5_PRIVATE_API 5.6.0~beta
 _ZNK15QQuickScrollBar8positionEv@Qt_5_PRIVATE_API 5.6.0~beta
 _ZNK15QQuickScrollBar8snapModeEv@Qt_5_PRIVATE_API 5.9.0~rc
 _ZNK15QQuickScrollBar8stepSizeEv@Qt_5_PRIVATE_API 5.7.1
 _ZNK15QQuickScrollBar9isPressedEv@Qt_5_PRIVATE_API 5.6.0~beta
 _ZNK15QQuickStackView10metaObjectEv@Qt_5_PRIVATE_API 5.6.0~beta
 _ZNK15QQuickStackView11currentItemEv@Qt_5_PRIVATE_API 5.6.0~beta
 _ZNK15QQuickStackView11initialItemEv@Qt_5_PRIVATE_API 5.6.0~beta
 _ZNK15QQuickStackView11replaceExitEv@Qt_5_PRIVATE_API 5.6.0~beta
 _ZNK15QQuickStackView12replaceEnterEv@Qt_5_PRIVATE_API 5.6.0~beta
 _ZNK15QQuickStackView14accessibleRoleEv@Qt_5_PRIVATE_API 5.9.0~rc
 _ZNK15QQuickStackView5depthEv@Qt_5_PRIVATE_API 5.6.0~beta
 _ZNK15QQuickStackView6isBusyEv@Qt_5_PRIVATE_API 5.6.0~beta
 _ZNK15QQuickStackView7popExitEv@Qt_5_PRIVATE_API 5.6.0~beta
 _ZNK15QQuickStackView8popEnterEv@Qt_5_PRIVATE_API 5.6.0~beta
 _ZNK15QQuickStackView8pushExitEv@Qt_5_PRIVATE_API 5.6.0~beta
 _ZNK15QQuickStackView9pushEnterEv@Qt_5_PRIVATE_API 5.6.0~beta
 _ZNK15QQuickSwipeView10metaObjectEv@Qt_5_PRIVATE_API 5.6.0~beta
 _ZNK15QQuickSwipeView11orientationEv@Qt_5_PRIVATE_API 5.9.0~rc
 _ZNK15QQuickSwipeView13isInteractiveEv@Qt_5_PRIVATE_API 5.9.0~rc
 _ZNK15QQuickSwipeView14accessibleRoleEv@Qt_5_PRIVATE_API 5.9.0~rc
 _ZNK15QQuickTabButton10metaObjectEv@Qt_5_PRIVATE_API 5.6.0~beta
 _ZNK15QQuickTabButton11defaultFontEv@Qt_5_PRIVATE_API 5.6.0~beta
 _ZNK15QQuickTabButton14accessibleRoleEv@Qt_5_PRIVATE_API 5.6.0~beta
 _ZNK15QQuickTextField10backgroundEv@Qt_5_PRIVATE_API 5.6.0~beta
 _ZNK15QQuickTextField10metaObjectEv@Qt_5_PRIVATE_API 5.6.0~beta
 _ZNK15QQuickTextField11focusReasonEv@Qt_5_PRIVATE_API 5.6.0~beta
 _ZNK15QQuickTextField14isHoverEnabledEv@Qt_5_PRIVATE_API 5.9.0~rc
 _ZNK15QQuickTextField15placeholderTextEv@Qt_5_PRIVATE_API 5.6.0~beta
 _ZNK15QQuickTextField4fontEv@Qt_5_PRIVATE_API 5.6.0~beta
 _ZNK15QQuickTextField9isHoveredEv@Qt_5_PRIVATE_API 5.9.0~rc
 _ZNK16QQuickScrollView10metaObjectEv@Qt_5_PRIVATE_API 5.9.0~rc
 _ZNK16QQuickScrollView12contentWidthEv@Qt_5_PRIVATE_API 5.9.0~rc
 _ZNK16QQuickScrollView13contentHeightEv@Qt_5_PRIVATE_API 5.9.0~rc
 _ZNK16QQuickScrollView14accessibleRoleEv@Qt_5_PRIVATE_API 5.9.0~rc
 _ZNK16QQuickSpinButton10metaObjectEv@Qt_5_PRIVATE_API 5.6.0~beta
 _ZNK16QQuickSpinButton9indicatorEv@Qt_5_PRIVATE_API 5.6.0~beta
 _ZNK16QQuickSpinButton9isHoveredEv@Qt_5_PRIVATE_API 5.9.0~rc
 _ZNK16QQuickSpinButton9isPressedEv@Qt_5_PRIVATE_API 5.6.0~beta
 _ZNK16QQuickToolButton10metaObjectEv@Qt_5_PRIVATE_API 5.6.0~beta
 _ZNK16QQuickToolButton11defaultFontEv@Qt_5_PRIVATE_API 5.6.0~beta
 _ZNK17QQuickButtonGroup10metaObjectEv@Qt_5_PRIVATE_API 5.6.0~beta
 _ZNK17QQuickButtonGroup13checkedButtonEv@Qt_5_PRIVATE_API 5.6.0~beta
 _ZNK17QQuickDelayButton10metaObjectEv@Qt_5_PRIVATE_API 5.9.0~rc
 _ZNK17QQuickDelayButton10transitionEv@Qt_5_PRIVATE_API 5.9.0~rc
 _ZNK17QQuickDelayButton11defaultFontEv@Qt_5_PRIVATE_API 5.9.0~rc
 _ZNK17QQuickDelayButton5delayEv@Qt_5_PRIVATE_API 5.9.0~rc
 _ZNK17QQuickDelayButton8progressEv@Qt_5_PRIVATE_API 5.9.0~rc
 _ZNK17QQuickMenuPrivate12currentIndexEv@Qt_5_PRIVATE_API 5.7.1
 _ZNK17QQuickMenuPrivate6itemAtEi@Qt_5_PRIVATE_API 5.6.0~beta
 _ZNK17QQuickProgressBar10metaObjectEv@Qt_5_PRIVATE_API 5.6.0~beta
 _ZNK17QQuickProgressBar14accessibleRoleEv@Qt_5_PRIVATE_API 5.6.0~beta
 _ZNK17QQuickProgressBar14visualPositionEv@Qt_5_PRIVATE_API 5.6.0~beta
 _ZNK17QQuickProgressBar15isIndeterminateEv@Qt_5_PRIVATE_API 5.6.0~beta
 _ZNK17QQuickProgressBar2toEv@Qt_5_PRIVATE_API 5.6.0~beta
 _ZNK17QQuickProgressBar4fromEv@Qt_5_PRIVATE_API 5.6.0~beta
 _ZNK17QQuickProgressBar5valueEv@Qt_5_PRIVATE_API 5.6.0~beta
 _ZNK17QQuickProgressBar8positionEv@Qt_5_PRIVATE_API 5.6.0~beta
 _ZNK17QQuickRadioButton10metaObjectEv@Qt_5_PRIVATE_API 5.6.0~beta
 _ZNK17QQuickRadioButton11defaultFontEv@Qt_5_PRIVATE_API 5.6.0~beta
 _ZNK17QQuickRadioButton14accessibleRoleEv@Qt_5_PRIVATE_API 5.6.0~beta
 _ZNK17QQuickRangeSlider10metaObjectEv@Qt_5_PRIVATE_API 5.6.0~beta
 _ZNK17QQuickRangeSlider11orientationEv@Qt_5_PRIVATE_API 5.6.0~beta
 _ZNK17QQuickRangeSlider14accessibleRoleEv@Qt_5_PRIVATE_API 5.6.0~beta
 _ZNK17QQuickRangeSlider2toEv@Qt_5_PRIVATE_API 5.6.0~beta
 _ZNK17QQuickRangeSlider4fromEv@Qt_5_PRIVATE_API 5.6.0~beta
 _ZNK17QQuickRangeSlider4liveEv@Qt_5_PRIVATE_API 5.9.0~rc
 _ZNK17QQuickRangeSlider5firstEv@Qt_5_PRIVATE_API 5.6.0~beta
 _ZNK17QQuickRangeSlider6secondEv@Qt_5_PRIVATE_API 5.6.0~beta
 _ZNK17QQuickRangeSlider8snapModeEv@Qt_5_PRIVATE_API 5.6.0~beta
 _ZNK17QQuickRangeSlider8stepSizeEv@Qt_5_PRIVATE_API 5.6.0~beta
 _ZNK17QQuickRoundButton10metaObjectEv@Qt_5_PRIVATE_API 5.9.0~rc
 _ZNK17QQuickRoundButton6radiusEv@Qt_5_PRIVATE_API 5.9.0~rc
 _ZNK18QQuickItemDelegate10metaObjectEv@Qt_5_PRIVATE_API 5.6.0~beta
 _ZNK18QQuickItemDelegate11defaultFontEv@Qt_5_PRIVATE_API 5.7.1
 _ZNK18QQuickItemDelegate13isHighlightedEv@Qt_5_PRIVATE_API 5.7.1
 _ZNK18QQuickItemDelegate14accessibleRoleEv@Qt_5_PRIVATE_API 5.6.0~beta
 _ZNK19QQuickBusyIndicator10metaObjectEv@Qt_5_PRIVATE_API 5.6.0~beta
 _ZNK19QQuickBusyIndicator14accessibleRoleEv@Qt_5_PRIVATE_API 5.6.0~beta
 _ZNK19QQuickBusyIndicator9isRunningEv@Qt_5_PRIVATE_API 5.6.0~beta
 _ZNK19QQuickCheckDelegate10checkStateEv@Qt_5_PRIVATE_API 5.7.1
 _ZNK19QQuickCheckDelegate10isTristateEv@Qt_5_PRIVATE_API 5.7.1
 _ZNK19QQuickCheckDelegate10metaObjectEv@Qt_5_PRIVATE_API 5.7.1
 _ZNK19QQuickCheckDelegate11defaultFontEv@Qt_5_PRIVATE_API 5.7.1
 _ZNK19QQuickCheckDelegate14accessibleRoleEv@Qt_5_PRIVATE_API 5.7.1
 _ZNK19QQuickMenuSeparator10metaObjectEv@Qt_5_PRIVATE_API 5.9.0~rc
 _ZNK19QQuickMenuSeparator14accessibleRoleEv@Qt_5_PRIVATE_API 5.9.0~rc
 _ZNK19QQuickPageIndicator10metaObjectEv@Qt_5_PRIVATE_API 5.6.0~beta
 _ZNK19QQuickPageIndicator12currentIndexEv@Qt_5_PRIVATE_API 5.6.0~beta
 _ZNK19QQuickPageIndicator13isInteractiveEv@Qt_5_PRIVATE_API 5.6.0~beta
 _ZNK19QQuickPageIndicator14accessibleRoleEv@Qt_5_PRIVATE_API 5.6.0~beta
 _ZNK19QQuickPageIndicator5countEv@Qt_5_PRIVATE_API 5.6.0~beta
 _ZNK19QQuickPageIndicator8delegateEv@Qt_5_PRIVATE_API 5.6.0~beta
 _ZNK19QQuickRadioDelegate10metaObjectEv@Qt_5_PRIVATE_API 5.7.1
 _ZNK19QQuickRadioDelegate11defaultFontEv@Qt_5_PRIVATE_API 5.7.1
 _ZNK19QQuickRadioDelegate14accessibleRoleEv@Qt_5_PRIVATE_API 5.7.1
 _ZNK19QQuickSwipeDelegate10metaObjectEv@Qt_5_PRIVATE_API 5.7.1
 _ZNK19QQuickSwipeDelegate11defaultFontEv@Qt_5_PRIVATE_API 5.7.1
 _ZNK19QQuickSwipeDelegate14accessibleRoleEv@Qt_5_PRIVATE_API 5.7.1
 _ZNK19QQuickSwipeDelegate5swipeEv@Qt_5_PRIVATE_API 5.7.1
 _ZNK19QQuickToolSeparator10isVerticalEv@Qt_5_PRIVATE_API 5.9.0~rc
 _ZNK19QQuickToolSeparator10metaObjectEv@Qt_5_PRIVATE_API 5.9.0~rc
 _ZNK19QQuickToolSeparator11orientationEv@Qt_5_PRIVATE_API 5.9.0~rc
 _ZNK19QQuickToolSeparator12isHorizontalEv@Qt_5_PRIVATE_API 5.9.0~rc
 _ZNK19QQuickToolSeparator14accessibleRoleEv@Qt_5_PRIVATE_API 5.9.0~rc
 _ZNK20QQuickAbstractButton10autoRepeatEv@Qt_5_PRIVATE_API 5.6.0~beta
 _ZNK20QQuickAbstractButton10metaObjectEv@Qt_5_PRIVATE_API 5.6.0~beta
 _ZNK20QQuickAbstractButton11isCheckableEv@Qt_5_PRIVATE_API 5.6.0~beta
 _ZNK20QQuickAbstractButton13autoExclusiveEv@Qt_5_PRIVATE_API 5.6.0~beta
 _ZNK20QQuickAbstractButton14accessibleRoleEv@Qt_5_PRIVATE_API 5.6.0~beta
 _ZNK20QQuickAbstractButton4textEv@Qt_5_PRIVATE_API 5.6.0~beta
 _ZNK20QQuickAbstractButton6isDownEv@Qt_5_PRIVATE_API 5.7.1
 _ZNK20QQuickAbstractButton9indicatorEv@Qt_5_PRIVATE_API 5.6.0~beta
 _ZNK20QQuickAbstractButton9isCheckedEv@Qt_5_PRIVATE_API 5.6.0~beta
 _ZNK20QQuickAbstractButton9isPressedEv@Qt_5_PRIVATE_API 5.6.0~beta
 _ZNK20QQuickControlPrivate14accessibleRoleEv@Qt_5_PRIVATE_API 5.6.0~beta
 _ZNK20QQuickSwitchDelegate10metaObjectEv@Qt_5_PRIVATE_API 5.7.1
 _ZNK20QQuickSwitchDelegate11defaultFontEv@Qt_5_PRIVATE_API 5.7.1
 _ZNK20QQuickSwitchDelegate14visualPositionEv@Qt_5_PRIVATE_API 5.7.1
 _ZNK20QQuickSwitchDelegate8positionEv@Qt_5_PRIVATE_API 5.7.1
 _ZNK20QQuickTumblerPrivate25viewContentItemChildItemsEv@Qt_5_PRIVATE_API 5.9.0~rc
 _ZNK21QQuickDialogButtonBox10metaObjectEv@Qt_5_PRIVATE_API 5.9.0~rc
 _ZNK21QQuickDialogButtonBox14accessibleRoleEv@Qt_5_PRIVATE_API 5.9.0~rc
 _ZNK21QQuickDialogButtonBox14standardButtonEN21QPlatformDialogHelper14StandardButtonE@Qt_5_PRIVATE_API 5.9.0~rc
 _ZNK21QQuickDialogButtonBox15standardButtonsEv@Qt_5_PRIVATE_API 5.9.0~rc
 _ZNK21QQuickDialogButtonBox8delegateEv@Qt_5_PRIVATE_API 5.9.0~rc
 _ZNK21QQuickDialogButtonBox8positionEv@Qt_5_PRIVATE_API 5.9.0~rc
 _ZNK21QQuickDialogButtonBox9alignmentEv@Qt_5_PRIVATE_API 5.9.0~rc
 _ZNK21QQuickDialogButtonBox9isContentEP10QQuickItem@Qt_5_PRIVATE_API 5.9.0~rc
 _ZNK21QQuickRangeSliderNode10metaObjectEv@Qt_5_PRIVATE_API 5.6.0~beta
 _ZNK21QQuickRangeSliderNode14visualPositionEv@Qt_5_PRIVATE_API 5.6.0~beta
 _ZNK21QQuickRangeSliderNode5valueEv@Qt_5_PRIVATE_API 5.6.0~beta
 _ZNK21QQuickRangeSliderNode6handleEv@Qt_5_PRIVATE_API 5.6.0~beta
 _ZNK21QQuickRangeSliderNode8positionEv@Qt_5_PRIVATE_API 5.6.0~beta
 _ZNK21QQuickRangeSliderNode9isHoveredEv@Qt_5_PRIVATE_API 5.9.0~rc
 _ZNK21QQuickRangeSliderNode9isPressedEv@Qt_5_PRIVATE_API 5.6.0~beta
 _ZNK21QQuickScrollIndicator10metaObjectEv@Qt_5_PRIVATE_API 5.6.0~beta
 _ZNK21QQuickScrollIndicator11orientationEv@Qt_5_PRIVATE_API 5.6.0~beta
 _ZNK21QQuickScrollIndicator14accessibleRoleEv@Qt_5_PRIVATE_API 5.6.0~beta
 _ZNK21QQuickScrollIndicator4sizeEv@Qt_5_PRIVATE_API 5.6.0~beta
 _ZNK21QQuickScrollIndicator8isActiveEv@Qt_5_PRIVATE_API 5.6.0~beta
 _ZNK21QQuickScrollIndicator8positionEv@Qt_5_PRIVATE_API 5.6.0~beta
 _ZNK21QQuickToolTipAttached10metaObjectEv@Qt_5_PRIVATE_API 5.7.1
 _ZNK21QQuickToolTipAttached4textEv@Qt_5_PRIVATE_API 5.7.1
 _ZNK21QQuickToolTipAttached5delayEv@Qt_5_PRIVATE_API 5.7.1
 _ZNK21QQuickToolTipAttached7timeoutEv@Qt_5_PRIVATE_API 5.7.1
 _ZNK21QQuickToolTipAttached7toolTipEv@Qt_5_PRIVATE_API 5.7.1
 _ZNK21QQuickToolTipAttached9isVisibleEv@Qt_5_PRIVATE_API 5.7.1
 _ZNK21QQuickTumblerAttached10metaObjectEv@Qt_5_PRIVATE_API 5.6.0~beta
 _ZNK21QQuickTumblerAttached12displacementEv@Qt_5_PRIVATE_API 5.6.0~beta
 _ZNK21QQuickTumblerAttached7tumblerEv@Qt_5_PRIVATE_API 5.6.0~beta
 _ZNK22QQuickContainerPrivate6itemAtEi@Qt_5_PRIVATE_API 5.6.0~beta
 _ZNK22QQuickTextAreaAttached10metaObjectEv@Qt_5_PRIVATE_API 5.7.1
 _ZNK22QQuickTextAreaAttached9flickableEv@Qt_5_PRIVATE_API 5.7.1
 _ZNK23QQuickApplicationWindow10backgroundEv@Qt_5_PRIVATE_API 5.7.1
 _ZNK23QQuickApplicationWindow10metaObjectEv@Qt_5_PRIVATE_API 5.6.0~beta
 _ZNK23QQuickApplicationWindow11contentItemEv@Qt_5_PRIVATE_API 5.6.0~beta
 _ZNK23QQuickApplicationWindow18activeFocusControlEv@Qt_5_PRIVATE_API 5.6.0~beta
 _ZNK23QQuickApplicationWindow19isComponentCompleteEv@Qt_5_PRIVATE_API 5.6.0~beta
 _ZNK23QQuickApplicationWindow4fontEv@Qt_5_PRIVATE_API 5.6.0~beta
 _ZNK23QQuickApplicationWindow6footerEv@Qt_5_PRIVATE_API 5.6.0~beta
 _ZNK23QQuickApplicationWindow6headerEv@Qt_5_PRIVATE_API 5.6.0~beta
 _ZNK23QQuickApplicationWindow6localeEv@Qt_5_PRIVATE_API 5.7.1
 _ZNK23QQuickApplicationWindow7overlayEv@Qt_5_PRIVATE_API 5.6.0~beta
 _ZNK23QQuickScrollBarAttached10horizontalEv@Qt_5_PRIVATE_API 5.6.0~beta
 _ZNK23QQuickScrollBarAttached10metaObjectEv@Qt_5_PRIVATE_API 5.6.0~beta
 _ZNK23QQuickScrollBarAttached8verticalEv@Qt_5_PRIVATE_API 5.6.0~beta
 _ZNK23QQuickStackViewAttached10metaObjectEv@Qt_5_PRIVATE_API 5.9.0~rc
 _ZNK23QQuickStackViewAttached4viewEv@Qt_5_PRIVATE_API 5.9.0~rc
 _ZNK23QQuickStackViewAttached5indexEv@Qt_5_PRIVATE_API 5.9.0~rc
 _ZNK23QQuickStackViewAttached6statusEv@Qt_5_PRIVATE_API 5.9.0~rc
 _ZNK23QQuickStackViewAttached9isVisibleEv@Qt_5_PRIVATE_API 5.9.0~rc
 _ZNK23QQuickSwipeViewAttached10isNextItemEv@Qt_5_PRIVATE_API 5.9.0~rc
 _ZNK23QQuickSwipeViewAttached10metaObjectEv@Qt_5_PRIVATE_API 5.6.0~beta
 _ZNK23QQuickSwipeViewAttached13isCurrentItemEv@Qt_5_PRIVATE_API 5.6.0~beta
 _ZNK23QQuickSwipeViewAttached14isPreviousItemEv@Qt_5_PRIVATE_API 5.9.0~rc
 _ZNK23QQuickSwipeViewAttached4viewEv@Qt_5_PRIVATE_API 5.6.0~beta
 _ZNK23QQuickSwipeViewAttached5indexEv@Qt_5_PRIVATE_API 5.6.0~beta
 _ZNK25QQuickButtonGroupAttached10metaObjectEv@Qt_5_PRIVATE_API 5.6.0~beta
 _ZNK25QQuickButtonGroupAttached5groupEv@Qt_5_PRIVATE_API 5.6.0~beta
 _ZNK27QQuickAbstractButtonPrivate17findCheckedButtonEv@Qt_5_PRIVATE_API 5.9.0~rc
 _ZNK27QQuickAbstractButtonPrivate20findExclusiveButtonsEv@Qt_5_PRIVATE_API 5.9.0~rc
 _ZNK27QQuickSwipeDelegateAttached10metaObjectEv@Qt_5_PRIVATE_API 5.9.0~rc
 _ZNK27QQuickSwipeDelegateAttached9isPressedEv@Qt_5_PRIVATE_API 5.9.0~rc
 _ZNK29QQuickDialogButtonBoxAttached10buttonRoleEv@Qt_5_PRIVATE_API 5.9.0~rc
 _ZNK29QQuickDialogButtonBoxAttached10metaObjectEv@Qt_5_PRIVATE_API 5.9.0~rc
 _ZNK29QQuickDialogButtonBoxAttached9buttonBoxEv@Qt_5_PRIVATE_API 5.9.0~rc
 _ZNK29QQuickScrollIndicatorAttached10horizontalEv@Qt_5_PRIVATE_API 5.6.0~beta
 _ZNK29QQuickScrollIndicatorAttached10metaObjectEv@Qt_5_PRIVATE_API 5.6.0~beta
 _ZNK29QQuickScrollIndicatorAttached8verticalEv@Qt_5_PRIVATE_API 5.6.0~beta
 _ZNK31QQuickApplicationWindowAttached10metaObjectEv@Qt_5_PRIVATE_API 5.6.0~beta
 _ZNK31QQuickApplicationWindowAttached11contentItemEv@Qt_5_PRIVATE_API 5.6.0~beta
 _ZNK31QQuickApplicationWindowAttached18activeFocusControlEv@Qt_5_PRIVATE_API 5.6.0~beta
 _ZNK31QQuickApplicationWindowAttached6footerEv@Qt_5_PRIVATE_API 5.6.0~beta
 _ZNK31QQuickApplicationWindowAttached6headerEv@Qt_5_PRIVATE_API 5.6.0~beta
 _ZNK31QQuickApplicationWindowAttached6windowEv@Qt_5_PRIVATE_API 5.6.0~beta
 _ZNK31QQuickApplicationWindowAttached7overlayEv@Qt_5_PRIVATE_API 5.6.0~beta
 _ZTI10QQuickDial@Qt_5_PRIVATE_API 5.6.0~beta
 _ZTI10QQuickMenu@Qt_5_PRIVATE_API 5.6.0~beta
 _ZTI10QQuickPage@Qt_5_PRIVATE_API 5.7.1
 _ZTI10QQuickPane@Qt_5_PRIVATE_API 5.6.0~beta
 _ZTI11QQuickFrame@Qt_5_PRIVATE_API 5.6.0~beta
 _ZTI11QQuickLabel@Qt_5_PRIVATE_API 5.6.0~beta
 _ZTI11QQuickPopup@Qt_5_PRIVATE_API 5.6.0~beta
 _ZTI11QQuickSwipe@Qt_5_PRIVATE_API 5.7.1
 _ZTI12QQuickButton@Qt_5_PRIVATE_API 5.6.0~beta
 _ZTI12QQuickDialog@Qt_5_PRIVATE_API 5.9.0~rc
 _ZTI12QQuickDrawer@Qt_5_PRIVATE_API 5.6.0~beta
 _ZTI12QQuickSlider@Qt_5_PRIVATE_API 5.6.0~beta
 _ZTI12QQuickSwitch@Qt_5_PRIVATE_API 5.6.0~beta
 _ZTI12QQuickTabBar@Qt_5_PRIVATE_API 5.6.0~beta
 _ZTI13QQuickControl@Qt_5_PRIVATE_API 5.6.0~beta
 _ZTI13QQuickOverlay@Qt_5_PRIVATE_API 5.7.1
 _ZTI13QQuickSpinBox@Qt_5_PRIVATE_API 5.6.0~beta
 _ZTI13QQuickToolBar@Qt_5_PRIVATE_API 5.6.0~beta
 _ZTI13QQuickToolTip@Qt_5_PRIVATE_API 5.7.1
 _ZTI13QQuickTumbler@Qt_5_PRIVATE_API 5.6.0~beta
 _ZTI14QQuickCheckBox@Qt_5_PRIVATE_API 5.6.0~beta
 _ZTI14QQuickComboBox@Qt_5_PRIVATE_API 5.6.0~beta
 _ZTI14QQuickGroupBox@Qt_5_PRIVATE_API 5.6.0~beta
 _ZTI14QQuickMenuItem@Qt_5_PRIVATE_API 5.6.0~beta
 _ZTI14QQuickTextArea@Qt_5_PRIVATE_API 5.6.0~beta
 _ZTI15QQuickContainer@Qt_5_PRIVATE_API 5.6.0~beta
 _ZTI15QQuickScrollBar@Qt_5_PRIVATE_API 5.6.0~beta
 _ZTI15QQuickStackView@Qt_5_PRIVATE_API 5.6.0~beta
 _ZTI15QQuickSwipeView@Qt_5_PRIVATE_API 5.6.0~beta
 _ZTI15QQuickTabButton@Qt_5_PRIVATE_API 5.6.0~beta
 _ZTI15QQuickTextField@Qt_5_PRIVATE_API 5.6.0~beta
 _ZTI16QQuickScrollView@Qt_5_PRIVATE_API 5.9.0~rc
 _ZTI16QQuickSpinButton@Qt_5_PRIVATE_API 5.6.0~beta
 _ZTI16QQuickToolButton@Qt_5_PRIVATE_API 5.6.0~beta
 _ZTI17QQuickButtonGroup@Qt_5_PRIVATE_API 5.6.0~beta
 _ZTI17QQuickDelayButton@Qt_5_PRIVATE_API 5.9.0~rc
 _ZTI17QQuickMenuPrivate@Qt_5_PRIVATE_API 5.6.0~beta
 _ZTI17QQuickPanePrivate@Qt_5_PRIVATE_API 5.6.0~beta
 _ZTI17QQuickProgressBar@Qt_5_PRIVATE_API 5.6.0~beta
 _ZTI17QQuickRadioButton@Qt_5_PRIVATE_API 5.6.0~beta
 _ZTI17QQuickRangeSlider@Qt_5_PRIVATE_API 5.6.0~beta
 _ZTI17QQuickRoundButton@Qt_5_PRIVATE_API 5.9.0~rc
 _ZTI18QQuickFramePrivate@Qt_5_PRIVATE_API 5.6.0~beta
 _ZTI18QQuickItemDelegate@Qt_5_PRIVATE_API 5.6.0~beta
 _ZTI19QQuickBusyIndicator@Qt_5_PRIVATE_API 5.6.0~beta
 _ZTI19QQuickCheckDelegate@Qt_5_PRIVATE_API 5.7.1
 _ZTI19QQuickMenuSeparator@Qt_5_PRIVATE_API 5.9.0~rc
 _ZTI19QQuickPageIndicator@Qt_5_PRIVATE_API 5.6.0~beta
 _ZTI19QQuickRadioDelegate@Qt_5_PRIVATE_API 5.7.1
 _ZTI19QQuickSwipeDelegate@Qt_5_PRIVATE_API 5.7.1
 _ZTI19QQuickToolSeparator@Qt_5_PRIVATE_API 5.9.0~rc
 _ZTI20QQuickAbstractButton@Qt_5_PRIVATE_API 5.6.0~beta
 _ZTI20QQuickControlPrivate@Qt_5_PRIVATE_API 5.6.0~beta
 _ZTI20QQuickSwitchDelegate@Qt_5_PRIVATE_API 5.7.1
 _ZTI20QQuickTumblerPrivate@Qt_5_PRIVATE_API 5.9.0~rc
 _ZTI21QQuickDialogButtonBox@Qt_5_PRIVATE_API 5.9.0~rc
 _ZTI21QQuickRangeSliderNode@Qt_5_PRIVATE_API 5.6.0~beta
 _ZTI21QQuickScrollIndicator@Qt_5_PRIVATE_API 5.6.0~beta
 _ZTI21QQuickToolTipAttached@Qt_5_PRIVATE_API 5.7.1
 _ZTI21QQuickTumblerAttached@Qt_5_PRIVATE_API 5.6.0~beta
 _ZTI22QQuickContainerPrivate@Qt_5_PRIVATE_API 5.6.0~beta
 _ZTI22QQuickTextAreaAttached@Qt_5_PRIVATE_API 5.7.1
 _ZTI23QQuickApplicationWindow@Qt_5_PRIVATE_API 5.6.0~beta
 _ZTI23QQuickScrollBarAttached@Qt_5_PRIVATE_API 5.6.0~beta
 _ZTI23QQuickStackViewAttached@Qt_5_PRIVATE_API 5.9.0~rc
 _ZTI23QQuickSwipeViewAttached@Qt_5_PRIVATE_API 5.6.0~beta
 _ZTI25QQuickButtonGroupAttached@Qt_5_PRIVATE_API 5.6.0~beta
 _ZTI27QQuickAbstractButtonPrivate@Qt_5_PRIVATE_API 5.9.0~rc
 _ZTI27QQuickSwipeDelegateAttached@Qt_5_PRIVATE_API 5.9.0~rc
 _ZTI29QQuickDialogButtonBoxAttached@Qt_5_PRIVATE_API 5.9.0~rc
 _ZTI29QQuickScrollIndicatorAttached@Qt_5_PRIVATE_API 5.6.0~beta
 _ZTI31QQuickApplicationWindowAttached@Qt_5_PRIVATE_API 5.6.0~beta
 _ZTI38QQuickItemViewTransitionChangeListener@Qt_5_PRIVATE_API 5.6.0~beta
 _ZTS10QQuickDial@Qt_5_PRIVATE_API 5.6.0~beta
 _ZTS10QQuickMenu@Qt_5_PRIVATE_API 5.6.0~beta
 _ZTS10QQuickPage@Qt_5_PRIVATE_API 5.7.1
 _ZTS10QQuickPane@Qt_5_PRIVATE_API 5.6.0~beta
 _ZTS11QQuickFrame@Qt_5_PRIVATE_API 5.6.0~beta
 _ZTS11QQuickLabel@Qt_5_PRIVATE_API 5.6.0~beta
 _ZTS11QQuickPopup@Qt_5_PRIVATE_API 5.6.0~beta
 _ZTS11QQuickSwipe@Qt_5_PRIVATE_API 5.7.1
 _ZTS12QQuickButton@Qt_5_PRIVATE_API 5.6.0~beta
 _ZTS12QQuickDialog@Qt_5_PRIVATE_API 5.9.0~rc
 _ZTS12QQuickDrawer@Qt_5_PRIVATE_API 5.6.0~beta
 _ZTS12QQuickSlider@Qt_5_PRIVATE_API 5.6.0~beta
 _ZTS12QQuickSwitch@Qt_5_PRIVATE_API 5.6.0~beta
 _ZTS12QQuickTabBar@Qt_5_PRIVATE_API 5.6.0~beta
 _ZTS13QQuickControl@Qt_5_PRIVATE_API 5.6.0~beta
 _ZTS13QQuickOverlay@Qt_5_PRIVATE_API 5.7.1
 _ZTS13QQuickSpinBox@Qt_5_PRIVATE_API 5.6.0~beta
 _ZTS13QQuickToolBar@Qt_5_PRIVATE_API 5.6.0~beta
 _ZTS13QQuickToolTip@Qt_5_PRIVATE_API 5.7.1
 _ZTS13QQuickTumbler@Qt_5_PRIVATE_API 5.6.0~beta
 _ZTS14QQuickCheckBox@Qt_5_PRIVATE_API 5.6.0~beta
 _ZTS14QQuickComboBox@Qt_5_PRIVATE_API 5.6.0~beta
 _ZTS14QQuickGroupBox@Qt_5_PRIVATE_API 5.6.0~beta
 _ZTS14QQuickMenuItem@Qt_5_PRIVATE_API 5.6.0~beta
 _ZTS14QQuickTextArea@Qt_5_PRIVATE_API 5.6.0~beta
 _ZTS15QQuickContainer@Qt_5_PRIVATE_API 5.6.0~beta
 _ZTS15QQuickScrollBar@Qt_5_PRIVATE_API 5.6.0~beta
 _ZTS15QQuickStackView@Qt_5_PRIVATE_API 5.6.0~beta
 _ZTS15QQuickSwipeView@Qt_5_PRIVATE_API 5.6.0~beta
 _ZTS15QQuickTabButton@Qt_5_PRIVATE_API 5.6.0~beta
 _ZTS15QQuickTextField@Qt_5_PRIVATE_API 5.6.0~beta
 _ZTS16QQuickScrollView@Qt_5_PRIVATE_API 5.9.0~rc
 _ZTS16QQuickSpinButton@Qt_5_PRIVATE_API 5.6.0~beta
 _ZTS16QQuickToolButton@Qt_5_PRIVATE_API 5.6.0~beta
 _ZTS17QQuickButtonGroup@Qt_5_PRIVATE_API 5.6.0~beta
 _ZTS17QQuickDelayButton@Qt_5_PRIVATE_API 5.9.0~rc
 _ZTS17QQuickMenuPrivate@Qt_5_PRIVATE_API 5.6.0~beta
 _ZTS17QQuickPanePrivate@Qt_5_PRIVATE_API 5.6.0~beta
 _ZTS17QQuickProgressBar@Qt_5_PRIVATE_API 5.6.0~beta
 _ZTS17QQuickRadioButton@Qt_5_PRIVATE_API 5.6.0~beta
 _ZTS17QQuickRangeSlider@Qt_5_PRIVATE_API 5.6.0~beta
 _ZTS17QQuickRoundButton@Qt_5_PRIVATE_API 5.9.0~rc
 _ZTS18QQuickFramePrivate@Qt_5_PRIVATE_API 5.6.0~beta
 _ZTS18QQuickItemDelegate@Qt_5_PRIVATE_API 5.6.0~beta
 _ZTS19QQuickBusyIndicator@Qt_5_PRIVATE_API 5.6.0~beta
 _ZTS19QQuickCheckDelegate@Qt_5_PRIVATE_API 5.7.1
 _ZTS19QQuickMenuSeparator@Qt_5_PRIVATE_API 5.9.0~rc
 _ZTS19QQuickPageIndicator@Qt_5_PRIVATE_API 5.6.0~beta
 _ZTS19QQuickRadioDelegate@Qt_5_PRIVATE_API 5.7.1
 _ZTS19QQuickSwipeDelegate@Qt_5_PRIVATE_API 5.7.1
 _ZTS19QQuickToolSeparator@Qt_5_PRIVATE_API 5.9.0~rc
 _ZTS20QQuickAbstractButton@Qt_5_PRIVATE_API 5.6.0~beta
 _ZTS20QQuickControlPrivate@Qt_5_PRIVATE_API 5.6.0~beta
 _ZTS20QQuickSwitchDelegate@Qt_5_PRIVATE_API 5.7.1
 _ZTS20QQuickTumblerPrivate@Qt_5_PRIVATE_API 5.9.0~rc
 _ZTS21QQuickDialogButtonBox@Qt_5_PRIVATE_API 5.9.0~rc
 _ZTS21QQuickRangeSliderNode@Qt_5_PRIVATE_API 5.6.0~beta
 _ZTS21QQuickScrollIndicator@Qt_5_PRIVATE_API 5.6.0~beta
 _ZTS21QQuickToolTipAttached@Qt_5_PRIVATE_API 5.7.1
 _ZTS21QQuickTumblerAttached@Qt_5_PRIVATE_API 5.6.0~beta
 _ZTS22QQuickContainerPrivate@Qt_5_PRIVATE_API 5.6.0~beta
 _ZTS22QQuickTextAreaAttached@Qt_5_PRIVATE_API 5.7.1
 _ZTS23QQuickApplicationWindow@Qt_5_PRIVATE_API 5.6.0~beta
 _ZTS23QQuickScrollBarAttached@Qt_5_PRIVATE_API 5.6.0~beta
 _ZTS23QQuickStackViewAttached@Qt_5_PRIVATE_API 5.9.0~rc
 _ZTS23QQuickSwipeViewAttached@Qt_5_PRIVATE_API 5.6.0~beta
 _ZTS25QQuickButtonGroupAttached@Qt_5_PRIVATE_API 5.6.0~beta
 _ZTS27QQuickAbstractButtonPrivate@Qt_5_PRIVATE_API 5.9.0~rc
 _ZTS27QQuickSwipeDelegateAttached@Qt_5_PRIVATE_API 5.9.0~rc
 _ZTS29QQuickDialogButtonBoxAttached@Qt_5_PRIVATE_API 5.9.0~rc
 _ZTS29QQuickScrollIndicatorAttached@Qt_5_PRIVATE_API 5.6.0~beta
 _ZTS31QQuickApplicationWindowAttached@Qt_5_PRIVATE_API 5.6.0~beta
 _ZTS38QQuickItemViewTransitionChangeListener@Qt_5_PRIVATE_API 5.6.0~beta
 _ZTV10QQuickDial@Qt_5_PRIVATE_API 5.6.0~beta
 _ZTV10QQuickMenu@Qt_5_PRIVATE_API 5.6.0~beta
 _ZTV10QQuickPage@Qt_5_PRIVATE_API 5.7.1
 _ZTV10QQuickPane@Qt_5_PRIVATE_API 5.6.0~beta
 _ZTV11QQuickFrame@Qt_5_PRIVATE_API 5.6.0~beta
 _ZTV11QQuickLabel@Qt_5_PRIVATE_API 5.6.0~beta
 _ZTV11QQuickPopup@Qt_5_PRIVATE_API 5.6.0~beta
 _ZTV11QQuickSwipe@Qt_5_PRIVATE_API 5.7.1
 _ZTV12QQuickButton@Qt_5_PRIVATE_API 5.6.0~beta
 _ZTV12QQuickDialog@Qt_5_PRIVATE_API 5.9.0~rc
 _ZTV12QQuickDrawer@Qt_5_PRIVATE_API 5.6.0~beta
 _ZTV12QQuickSlider@Qt_5_PRIVATE_API 5.6.0~beta
 _ZTV12QQuickSwitch@Qt_5_PRIVATE_API 5.6.0~beta
 _ZTV12QQuickTabBar@Qt_5_PRIVATE_API 5.6.0~beta
 _ZTV13QQuickControl@Qt_5_PRIVATE_API 5.6.0~beta
 _ZTV13QQuickOverlay@Qt_5_PRIVATE_API 5.7.1
 _ZTV13QQuickSpinBox@Qt_5_PRIVATE_API 5.6.0~beta
 _ZTV13QQuickToolBar@Qt_5_PRIVATE_API 5.6.0~beta
 _ZTV13QQuickToolTip@Qt_5_PRIVATE_API 5.7.1
 _ZTV13QQuickTumbler@Qt_5_PRIVATE_API 5.6.0~beta
 _ZTV14QQuickCheckBox@Qt_5_PRIVATE_API 5.6.0~beta
 _ZTV14QQuickComboBox@Qt_5_PRIVATE_API 5.6.0~beta
 _ZTV14QQuickGroupBox@Qt_5_PRIVATE_API 5.6.0~beta
 _ZTV14QQuickMenuItem@Qt_5_PRIVATE_API 5.6.0~beta
 _ZTV14QQuickTextArea@Qt_5_PRIVATE_API 5.6.0~beta
 _ZTV15QQuickContainer@Qt_5_PRIVATE_API 5.6.0~beta
 _ZTV15QQuickScrollBar@Qt_5_PRIVATE_API 5.6.0~beta
 _ZTV15QQuickStackView@Qt_5_PRIVATE_API 5.6.0~beta
 _ZTV15QQuickSwipeView@Qt_5_PRIVATE_API 5.6.0~beta
 _ZTV15QQuickTabButton@Qt_5_PRIVATE_API 5.6.0~beta
 _ZTV15QQuickTextField@Qt_5_PRIVATE_API 5.6.0~beta
 _ZTV16QQuickScrollView@Qt_5_PRIVATE_API 5.9.0~rc
 _ZTV16QQuickSpinButton@Qt_5_PRIVATE_API 5.6.0~beta
 _ZTV16QQuickToolButton@Qt_5_PRIVATE_API 5.6.0~beta
 _ZTV17QQuickButtonGroup@Qt_5_PRIVATE_API 5.6.0~beta
 _ZTV17QQuickDelayButton@Qt_5_PRIVATE_API 5.9.0~rc
 _ZTV17QQuickMenuPrivate@Qt_5_PRIVATE_API 5.6.0~beta
 _ZTV17QQuickPanePrivate@Qt_5_PRIVATE_API 5.6.0~beta
 _ZTV17QQuickProgressBar@Qt_5_PRIVATE_API 5.6.0~beta
 _ZTV17QQuickRadioButton@Qt_5_PRIVATE_API 5.6.0~beta
 _ZTV17QQuickRangeSlider@Qt_5_PRIVATE_API 5.6.0~beta
 _ZTV17QQuickRoundButton@Qt_5_PRIVATE_API 5.9.0~rc
 _ZTV18QQuickFramePrivate@Qt_5_PRIVATE_API 5.6.0~beta
 _ZTV18QQuickItemDelegate@Qt_5_PRIVATE_API 5.6.0~beta
 _ZTV19QQuickBusyIndicator@Qt_5_PRIVATE_API 5.6.0~beta
 _ZTV19QQuickCheckDelegate@Qt_5_PRIVATE_API 5.7.1
 _ZTV19QQuickMenuSeparator@Qt_5_PRIVATE_API 5.9.0~rc
 _ZTV19QQuickPageIndicator@Qt_5_PRIVATE_API 5.6.0~beta
 _ZTV19QQuickRadioDelegate@Qt_5_PRIVATE_API 5.7.1
 _ZTV19QQuickSwipeDelegate@Qt_5_PRIVATE_API 5.7.1
 _ZTV19QQuickToolSeparator@Qt_5_PRIVATE_API 5.9.0~rc
 _ZTV20QQuickAbstractButton@Qt_5_PRIVATE_API 5.6.0~beta
 _ZTV20QQuickControlPrivate@Qt_5_PRIVATE_API 5.6.0~beta
 _ZTV20QQuickSwitchDelegate@Qt_5_PRIVATE_API 5.7.1
 _ZTV20QQuickTumblerPrivate@Qt_5_PRIVATE_API 5.9.0~rc
 _ZTV21QQuickDialogButtonBox@Qt_5_PRIVATE_API 5.9.0~rc
 _ZTV21QQuickRangeSliderNode@Qt_5_PRIVATE_API 5.6.0~beta
 _ZTV21QQuickScrollIndicator@Qt_5_PRIVATE_API 5.6.0~beta
 _ZTV21QQuickToolTipAttached@Qt_5_PRIVATE_API 5.7.1
 _ZTV21QQuickTumblerAttached@Qt_5_PRIVATE_API 5.6.0~beta
 _ZTV22QQuickContainerPrivate@Qt_5_PRIVATE_API 5.6.0~beta
 _ZTV22QQuickTextAreaAttached@Qt_5_PRIVATE_API 5.7.1
 _ZTV23QQuickApplicationWindow@Qt_5_PRIVATE_API 5.6.0~beta
 _ZTV23QQuickScrollBarAttached@Qt_5_PRIVATE_API 5.6.0~beta
 _ZTV23QQuickStackViewAttached@Qt_5_PRIVATE_API 5.9.0~rc
 _ZTV23QQuickSwipeViewAttached@Qt_5_PRIVATE_API 5.6.0~beta
 _ZTV25QQuickButtonGroupAttached@Qt_5_PRIVATE_API 5.6.0~beta
 _ZTV27QQuickAbstractButtonPrivate@Qt_5_PRIVATE_API 5.9.0~rc
 _ZTV27QQuickSwipeDelegateAttached@Qt_5_PRIVATE_API 5.9.0~rc
 _ZTV29QQuickDialogButtonBoxAttached@Qt_5_PRIVATE_API 5.9.0~rc
 _ZTV29QQuickScrollIndicatorAttached@Qt_5_PRIVATE_API 5.6.0~beta
 _ZTV31QQuickApplicationWindowAttached@Qt_5_PRIVATE_API 5.6.0~beta
 (c++)"non-virtual thunk to QQuickAbstractButton::~QQuickAbstractButton()@Qt_5_PRIVATE_API" 5.6.0~beta
 (c++)"non-virtual thunk to QQuickApplicationWindow::classBegin()@Qt_5_PRIVATE_API" 5.7.1
 (c++)"non-virtual thunk to QQuickApplicationWindow::componentComplete()@Qt_5_PRIVATE_API" 5.6.0~beta
 (c++)"non-virtual thunk to QQuickApplicationWindow::~QQuickApplicationWindow()@Qt_5_PRIVATE_API" 5.6.0~beta
 (c++)"non-virtual thunk to QQuickComboBox::componentComplete()@Qt_5_PRIVATE_API" 5.6.0~beta
 (c++)"non-virtual thunk to QQuickComboBox::~QQuickComboBox()@Qt_5_PRIVATE_API" 5.7.1
 (c++)"non-virtual thunk to QQuickContainer::~QQuickContainer()@Qt_5_PRIVATE_API" 5.6.0~beta
 (c++)"non-virtual thunk to QQuickContainerPrivate::itemChildAdded(QQuickItem*, QQuickItem*)@Qt_5_PRIVATE_API" 5.6.0~beta
 (c++)"non-virtual thunk to QQuickContainerPrivate::itemDestroyed(QQuickItem*)@Qt_5_PRIVATE_API" 5.6.0~beta
 (c++)"non-virtual thunk to QQuickContainerPrivate::itemParentChanged(QQuickItem*, QQuickItem*)@Qt_5_PRIVATE_API" 5.6.0~beta
 (c++)"non-virtual thunk to QQuickContainerPrivate::itemSiblingOrderChanged(QQuickItem*)@Qt_5_PRIVATE_API" 5.6.0~beta
 (c++)"non-virtual thunk to QQuickControl::classBegin()@Qt_5_PRIVATE_API" 5.6.0~beta
 (c++)"non-virtual thunk to QQuickControl::componentComplete()@Qt_5_PRIVATE_API" 5.6.0~beta
 (c++)"non-virtual thunk to QQuickControlPrivate::accessibilityActiveChanged(bool)@Qt_5_PRIVATE_API" 5.6.0~beta
 (c++)"non-virtual thunk to QQuickControlPrivate::~QQuickControlPrivate()@Qt_5_PRIVATE_API" 5.6.0~beta
 (c++)"non-virtual thunk to QQuickDial::componentComplete()@Qt_5_PRIVATE_API" 5.6.0~beta
 (c++)"non-virtual thunk to QQuickDialogButtonBox::componentComplete()@Qt_5_PRIVATE_API" 5.9.0~rc
 (c++)"non-virtual thunk to QQuickDialogButtonBox::~QQuickDialogButtonBox()@Qt_5_PRIVATE_API" 5.9.0~rc
 (c++)"non-virtual thunk to QQuickLabel::classBegin()@Qt_5_PRIVATE_API" 5.6.0~beta
 (c++)"non-virtual thunk to QQuickLabel::componentComplete()@Qt_5_PRIVATE_API" 5.7.1
 (c++)"non-virtual thunk to QQuickMenu::componentComplete()@Qt_5_PRIVATE_API" 5.7.1
 (c++)"non-virtual thunk to QQuickMenuPrivate::itemChildAdded(QQuickItem*, QQuickItem*)@Qt_5_PRIVATE_API" 5.6.0~beta
 (c++)"non-virtual thunk to QQuickMenuPrivate::itemDestroyed(QQuickItem*)@Qt_5_PRIVATE_API" 5.6.0~beta
 (c++)"non-virtual thunk to QQuickMenuPrivate::itemGeometryChanged(QQuickItem*, QQuickGeometryChange, QRectF const&)@Qt_5_PRIVATE_API" 5.9.0~rc
 (c++)"non-virtual thunk to QQuickMenuPrivate::itemParentChanged(QQuickItem*, QQuickItem*)@Qt_5_PRIVATE_API" 5.6.0~beta
 (c++)"non-virtual thunk to QQuickMenuPrivate::itemSiblingOrderChanged(QQuickItem*)@Qt_5_PRIVATE_API" 5.6.0~beta
 (c++)"non-virtual thunk to QQuickOverlay::~QQuickOverlay()@Qt_5_PRIVATE_API" 5.7.1
 (c++)"non-virtual thunk to QQuickPage::componentComplete()@Qt_5_PRIVATE_API" 5.9.1
 (c++)"non-virtual thunk to QQuickPopup::classBegin()@Qt_5_PRIVATE_API" 5.7.1
 (c++)"non-virtual thunk to QQuickPopup::componentComplete()@Qt_5_PRIVATE_API" 5.7.1
 (c++)"non-virtual thunk to QQuickPopup::~QQuickPopup()@Qt_5_PRIVATE_API" 5.7.1
 (c++)"non-virtual thunk to QQuickProgressBar::componentComplete()@Qt_5_PRIVATE_API" 5.6.0~beta
 (c++)"non-virtual thunk to QQuickRangeSlider::componentComplete()@Qt_5_PRIVATE_API" 5.6.0~beta
 (c++)"non-virtual thunk to QQuickScrollView::componentComplete()@Qt_5_PRIVATE_API" 5.9.0~rc
 (c++)"non-virtual thunk to QQuickSlider::componentComplete()@Qt_5_PRIVATE_API" 5.6.0~beta
 (c++)"non-virtual thunk to QQuickSpinBox::componentComplete()@Qt_5_PRIVATE_API" 5.6.0~beta
 (c++)"non-virtual thunk to QQuickStackView::componentComplete()@Qt_5_PRIVATE_API" 5.6.0~beta
 (c++)"non-virtual thunk to QQuickStackView::~QQuickStackView()@Qt_5_PRIVATE_API" 5.6.0~beta
 (c++)"non-virtual thunk to QQuickTabBar::componentComplete()@Qt_5_PRIVATE_API" 5.6.0~beta
 (c++)"non-virtual thunk to QQuickTextArea::classBegin()@Qt_5_PRIVATE_API" 5.6.0~beta
 (c++)"non-virtual thunk to QQuickTextArea::componentComplete()@Qt_5_PRIVATE_API" 5.7.1
 (c++)"non-virtual thunk to QQuickTextField::classBegin()@Qt_5_PRIVATE_API" 5.6.0~beta
 (c++)"non-virtual thunk to QQuickTextField::componentComplete()@Qt_5_PRIVATE_API" 5.7.1
 (c++)"non-virtual thunk to QQuickTumbler::componentComplete()@Qt_5_PRIVATE_API" 5.6.0~beta
 (c++)"non-virtual thunk to QQuickTumbler::~QQuickTumbler()@Qt_5_PRIVATE_API" 5.6.0~beta
 (c++)"non-virtual thunk to QQuickTumblerPrivate::itemChildAdded(QQuickItem*, QQuickItem*)@Qt_5_PRIVATE_API" 5.9.0~rc
 (c++)"non-virtual thunk to QQuickTumblerPrivate::itemChildRemoved(QQuickItem*, QQuickItem*)@Qt_5_PRIVATE_API" 5.9.0~rc
 (c++)"non-virtual thunk to QQuickTumblerPrivate::~QQuickTumblerPrivate()@Qt_5_PRIVATE_API" 5.9.0~rc
