# SymbolsHelper-Confirmed: 5.7.1 amd64
libQt5QuickControls2.so.5 libqt5quickcontrols2-5 #MINVER#
 Qt_5.0@Qt_5.0 5.7.1
 Qt_5.1@Qt_5.1 5.7.1
 Qt_5.2@Qt_5.2 5.7.1
 Qt_5.3@Qt_5.3 5.7.1
 Qt_5.4@Qt_5.4 5.7.1
 Qt_5.5@Qt_5.5 5.7.1
 Qt_5.6@Qt_5.6 5.7.1
 Qt_5.7@Qt_5.7 5.7.1
 Qt_5@Qt_5 5.7.1
 Qt_5_PRIVATE_API@Qt_5_PRIVATE_API 5.7.1
 _ZN11QQuickStyle4nameEv@Qt_5 5.7.1
 _ZN11QQuickStyle4pathEv@Qt_5 5.7.1
 _ZN11QQuickStyle8setStyleERK7QString@Qt_5 5.7.1
 _ZN16QQuickProxyTheme19showPlatformMenuBarEv@Qt_5_PRIVATE_API 5.7.1
 _ZN16QQuickProxyThemeC1EP14QPlatformTheme@Qt_5_PRIVATE_API 5.7.1
 _ZN16QQuickProxyThemeC2EP14QPlatformTheme@Qt_5_PRIVATE_API 5.7.1
 _ZN16QQuickProxyThemeD0Ev@Qt_5_PRIVATE_API 5.7.1
 _ZN16QQuickProxyThemeD1Ev@Qt_5_PRIVATE_API 5.7.1
 _ZN16QQuickProxyThemeD2Ev@Qt_5_PRIVATE_API 5.7.1
 _ZN17QQuickStylePlugin11qt_metacallEN11QMetaObject4CallEiPPv@Qt_5_PRIVATE_API 5.7.1
 _ZN17QQuickStylePlugin11qt_metacastEPKc@Qt_5_PRIVATE_API 5.7.1
 _ZN17QQuickStylePlugin13registerTypesEPKc@Qt_5_PRIVATE_API 5.7.1
 _ZN17QQuickStylePlugin16initializeEngineEP10QQmlEnginePKc@Qt_5_PRIVATE_API 5.7.1
 _ZN17QQuickStylePlugin16staticMetaObjectE@Qt_5_PRIVATE_API 5.7.1
 _ZN17QQuickStylePluginC1EP7QObject@Qt_5_PRIVATE_API 5.7.1
 _ZN17QQuickStylePluginC2EP7QObject@Qt_5_PRIVATE_API 5.7.1
 _ZN17QQuickStylePluginD0Ev@Qt_5_PRIVATE_API 5.7.1
 _ZN17QQuickStylePluginD1Ev@Qt_5_PRIVATE_API 5.7.1
 _ZN17QQuickStylePluginD2Ev@Qt_5_PRIVATE_API 5.7.1
 _ZN19QQuickStyleAttached11qt_metacallEN11QMetaObject4CallEiPPv@Qt_5_PRIVATE_API 5.7.1
 _ZN19QQuickStyleAttached11qt_metacastEPKc@Qt_5_PRIVATE_API 5.7.1
 _ZN19QQuickStyleAttached14setParentStyleEPS_@Qt_5_PRIVATE_API 5.7.1
 _ZN19QQuickStyleAttached16staticMetaObjectE@Qt_5_PRIVATE_API 5.7.1
 _ZN19QQuickStyleAttached17itemParentChangedEP10QQuickItemS1_@Qt_5_PRIVATE_API 5.7.1
 _ZN19QQuickStyleAttached17itemWindowChangedEP12QQuickWindow@Qt_5_PRIVATE_API 5.7.1
 _ZN19QQuickStyleAttached17parentStyleChangeEPS_S0_@Qt_5_PRIVATE_API 5.7.1
 _ZN19QQuickStyleAttached4initEv@Qt_5_PRIVATE_API 5.7.1
 _ZN19QQuickStyleAttached8settingsERK7QString@Qt_5_PRIVATE_API 5.7.1
 _ZN19QQuickStyleAttachedC1EP7QObject@Qt_5_PRIVATE_API 5.7.1
 _ZN19QQuickStyleAttachedC2EP7QObject@Qt_5_PRIVATE_API 5.7.1
 _ZN19QQuickStyleAttachedD0Ev@Qt_5_PRIVATE_API 5.7.1
 _ZN19QQuickStyleAttachedD1Ev@Qt_5_PRIVATE_API 5.7.1
 _ZN19QQuickStyleAttachedD2Ev@Qt_5_PRIVATE_API 5.7.1
 _ZN19QQuickStyleSelector10setBaseUrlERK4QUrl@Qt_5_PRIVATE_API 5.7.1
 _ZN19QQuickStyleSelectorC1Ev@Qt_5_PRIVATE_API 5.7.1
 _ZN19QQuickStyleSelectorC2Ev@Qt_5_PRIVATE_API 5.7.1
 _ZN19QQuickStyleSelectorD1Ev@Qt_5_PRIVATE_API 5.7.1
 _ZN19QQuickStyleSelectorD2Ev@Qt_5_PRIVATE_API 5.7.1
 _ZN21QQuickPaddedRectangle10setPaddingEd@Qt_5_PRIVATE_API 5.7.1
 _ZN21QQuickPaddedRectangle11qt_metacallEN11QMetaObject4CallEiPPv@Qt_5_PRIVATE_API 5.7.1
 _ZN21QQuickPaddedRectangle11qt_metacastEPKc@Qt_5_PRIVATE_API 5.7.1
 _ZN21QQuickPaddedRectangle12resetPaddingEv@Qt_5_PRIVATE_API 5.7.1
 _ZN21QQuickPaddedRectangle13setTopPaddingEd@Qt_5_PRIVATE_API 5.7.1
 _ZN21QQuickPaddedRectangle13setTopPaddingEdb@Qt_5_PRIVATE_API 5.7.1
 _ZN21QQuickPaddedRectangle14paddingChangedEv@Qt_5_PRIVATE_API 5.7.1
 _ZN21QQuickPaddedRectangle14setLeftPaddingEd@Qt_5_PRIVATE_API 5.7.1
 _ZN21QQuickPaddedRectangle14setLeftPaddingEdb@Qt_5_PRIVATE_API 5.7.1
 _ZN21QQuickPaddedRectangle15resetTopPaddingEv@Qt_5_PRIVATE_API 5.7.1
 _ZN21QQuickPaddedRectangle15setRightPaddingEd@Qt_5_PRIVATE_API 5.7.1
 _ZN21QQuickPaddedRectangle15setRightPaddingEdb@Qt_5_PRIVATE_API 5.7.1
 _ZN21QQuickPaddedRectangle15updatePaintNodeEP7QSGNodePN10QQuickItem19UpdatePaintNodeDataE@Qt_5_PRIVATE_API 5.7.1
 _ZN21QQuickPaddedRectangle16resetLeftPaddingEv@Qt_5_PRIVATE_API 5.7.1
 _ZN21QQuickPaddedRectangle16setBottomPaddingEd@Qt_5_PRIVATE_API 5.7.1
 _ZN21QQuickPaddedRectangle16setBottomPaddingEdb@Qt_5_PRIVATE_API 5.7.1
 _ZN21QQuickPaddedRectangle16staticMetaObjectE@Qt_5_PRIVATE_API 5.7.1
 _ZN21QQuickPaddedRectangle17resetRightPaddingEv@Qt_5_PRIVATE_API 5.7.1
 _ZN21QQuickPaddedRectangle17topPaddingChangedEv@Qt_5_PRIVATE_API 5.7.1
 _ZN21QQuickPaddedRectangle18leftPaddingChangedEv@Qt_5_PRIVATE_API 5.7.1
 _ZN21QQuickPaddedRectangle18resetBottomPaddingEv@Qt_5_PRIVATE_API 5.7.1
 _ZN21QQuickPaddedRectangle19rightPaddingChangedEv@Qt_5_PRIVATE_API 5.7.1
 _ZN21QQuickPaddedRectangle20bottomPaddingChangedEv@Qt_5_PRIVATE_API 5.7.1
 _ZN21QQuickPaddedRectangleC1EP10QQuickItem@Qt_5_PRIVATE_API 5.7.1
 _ZN21QQuickPaddedRectangleC2EP10QQuickItem@Qt_5_PRIVATE_API 5.7.1
 _ZN24QQuickColorImageProvider12requestImageERK7QStringP5QSizeRKS3_@Qt_5_PRIVATE_API 5.7.1
 _ZN24QQuickColorImageProviderC1ERK7QString@Qt_5_PRIVATE_API 5.7.1
 _ZN24QQuickColorImageProviderC2ERK7QString@Qt_5_PRIVATE_API 5.7.1
 _ZNK16QQuickProxyTheme11keyBindingsEN12QKeySequence11StandardKeyE@Qt_5_PRIVATE_API 5.7.1
 _ZNK16QQuickProxyTheme14fileIconPixmapERK9QFileInfoRK6QSizeF6QFlagsIN14QPlatformTheme10IconOptionEE@Qt_5_PRIVATE_API 5.7.1
 _ZNK16QQuickProxyTheme14standardPixmapEN14QPlatformTheme14StandardPixmapERK6QSizeF@Qt_5_PRIVATE_API 5.7.1
 _ZNK16QQuickProxyTheme16createIconEngineERK7QString@Qt_5_PRIVATE_API 5.7.1
 _ZNK16QQuickProxyTheme18createPlatformMenuEv@Qt_5_PRIVATE_API 5.7.1
 _ZNK16QQuickProxyTheme18standardButtonTextEi@Qt_5_PRIVATE_API 5.7.1
 _ZNK16QQuickProxyTheme21createPlatformMenuBarEv@Qt_5_PRIVATE_API 5.7.1
 _ZNK16QQuickProxyTheme22createPlatformMenuItemEv@Qt_5_PRIVATE_API 5.7.1
 _ZNK16QQuickProxyTheme23usePlatformNativeDialogEN14QPlatformTheme10DialogTypeE@Qt_5_PRIVATE_API 5.7.1
 _ZNK16QQuickProxyTheme26createPlatformDialogHelperEN14QPlatformTheme10DialogTypeE@Qt_5_PRIVATE_API 5.7.1
 _ZNK16QQuickProxyTheme28createPlatformSystemTrayIconEv@Qt_5_PRIVATE_API 5.7.1
 _ZNK16QQuickProxyTheme4fontEN14QPlatformTheme4FontE@Qt_5_PRIVATE_API 5.7.1
 _ZNK16QQuickProxyTheme5themeEv@Qt_5_PRIVATE_API 5.7.1
 _ZNK16QQuickProxyTheme7paletteEN14QPlatformTheme7PaletteE@Qt_5_PRIVATE_API 5.7.1
 _ZNK16QQuickProxyTheme9themeHintEN14QPlatformTheme9ThemeHintE@Qt_5_PRIVATE_API 5.7.1
 _ZNK17QQuickStylePlugin10metaObjectEv@Qt_5_PRIVATE_API 5.7.1
 _ZNK17QQuickStylePlugin11createThemeEv@Qt_5_PRIVATE_API 5.7.1
 _ZNK17QQuickStylePlugin4nameEv@Qt_5_PRIVATE_API 5.7.1
 _ZNK17QQuickStylePlugin7typeUrlERK7QString@Qt_5_PRIVATE_API 5.7.1
 _ZNK19QQuickStyleAttached10metaObjectEv@Qt_5_PRIVATE_API 5.7.1
 _ZNK19QQuickStyleAttached11childStylesEv@Qt_5_PRIVATE_API 5.7.1
 _ZNK19QQuickStyleAttached11parentStyleEv@Qt_5_PRIVATE_API 5.7.1
 _ZNK19QQuickStyleSelector6selectERK7QString@Qt_5_PRIVATE_API 5.7.1
 _ZNK19QQuickStyleSelector7baseUrlEv@Qt_5_PRIVATE_API 5.7.1
 _ZNK21QQuickPaddedRectangle10metaObjectEv@Qt_5_PRIVATE_API 5.7.1
 _ZNK21QQuickPaddedRectangle10topPaddingEv@Qt_5_PRIVATE_API 5.7.1
 _ZNK21QQuickPaddedRectangle11leftPaddingEv@Qt_5_PRIVATE_API 5.7.1
 _ZNK21QQuickPaddedRectangle12rightPaddingEv@Qt_5_PRIVATE_API 5.7.1
 _ZNK21QQuickPaddedRectangle13bottomPaddingEv@Qt_5_PRIVATE_API 5.7.1
 _ZNK21QQuickPaddedRectangle7paddingEv@Qt_5_PRIVATE_API 5.7.1
 _ZTI16QQuickProxyTheme@Qt_5_PRIVATE_API 5.7.1
 _ZTI17QQuickStylePlugin@Qt_5_PRIVATE_API 5.7.1
 _ZTI19QQuickStyleAttached@Qt_5_PRIVATE_API 5.7.1
 _ZTI21QQuickPaddedRectangle@Qt_5_PRIVATE_API 5.7.1
 _ZTI24QQuickColorImageProvider@Qt_5_PRIVATE_API 5.7.1
 _ZTS16QQuickProxyTheme@Qt_5_PRIVATE_API 5.7.1
 _ZTS17QQuickStylePlugin@Qt_5_PRIVATE_API 5.7.1
 _ZTS19QQuickStyleAttached@Qt_5_PRIVATE_API 5.7.1
 _ZTS21QQuickPaddedRectangle@Qt_5_PRIVATE_API 5.7.1
 _ZTS24QQuickColorImageProvider@Qt_5_PRIVATE_API 5.7.1
 _ZTV16QQuickProxyTheme@Qt_5_PRIVATE_API 5.7.1
 _ZTV17QQuickStylePlugin@Qt_5_PRIVATE_API 5.7.1
 _ZTV19QQuickStyleAttached@Qt_5_PRIVATE_API 5.7.1
 _ZTV21QQuickPaddedRectangle@Qt_5_PRIVATE_API 5.7.1
 _ZTV24QQuickColorImageProvider@Qt_5_PRIVATE_API 5.7.1
 (c++)"non-virtual thunk to QQuickStyleAttached::itemParentChanged(QQuickItem*, QQuickItem*)@Qt_5_PRIVATE_API" 5.7.1
 (c++)"non-virtual thunk to QQuickStyleAttached::~QQuickStyleAttached()@Qt_5_PRIVATE_API" 5.7.1
 (c++)"non-virtual thunk to QQuickStylePlugin::initializeEngine(QQmlEngine*, char const*)@Qt_5_PRIVATE_API" 5.7.1
 (c++)"non-virtual thunk to QQuickStylePlugin::registerTypes(char const*)@Qt_5_PRIVATE_API" 5.7.1
 (c++)"non-virtual thunk to QQuickStylePlugin::~QQuickStylePlugin()@Qt_5_PRIVATE_API" 5.7.1
